(dp1
S'aux'
p2
(lp3
(F1510753084.141711
(lp4
I2
aI1
atp5
aS''
a(F1510753084.1922281
(lp6
I1
aI0
atp7
aS''
asS'li-cor'
p8
(dp9
S'dt'
p10
I1
sS't0'
p11
F1510753084.2548571
sS'ty'
p12
(lp13
(F1.0967254638671875e-05
(lp14
F456.72399999999999
aF2.9259599999999999
aF83.500799999999998
aF51.543900000000001
atp15
a(F1.0000638961791992
(lp16
F462.59300000000002
aF2.93052
aF84.020399999999995
aF51.543900000000001
atp17
a(F2.0005569458007812
(lp18
F452.66399999999999
aF2.8401900000000002
aF84.481499999999997
aF51.543900000000001
atp19
a(F3.0005369186401367
(lp20
F458.029
aF2.8146599999999999
aF84.544300000000007
aF51.543900000000001
atp21
a(F4.0005049705505371
(lp22
F457.35599999999999
aF2.8731100000000001
aF84.557699999999997
aF51.543900000000001
atp23
a(F5.0005419254302979
(lp24
F457.68599999999998
aF2.89161
aF84.588999999999999
aF51.517200000000003
atp25
a(F6.0004589557647705
(lp26
F457.66399999999999
aF2.9147500000000002
aF84.571100000000001
aF51.543900000000001
atp27
a(F7.0004379749298096
(lp28
F457.55799999999999
aF2.9001199999999998
aF84.588999999999999
aF51.543900000000001
atp29
a(F8.0000560283660889
(lp30
F458.52999999999997
aF2.8896999999999999
aF84.602400000000003
aF51.543900000000001
atp31
a(F9.0005989074707031
(lp32
F457.58100000000002
aF2.86985
aF84.584599999999995
aF51.543900000000001
atp33
a(F10.000365972518921
(lp34
F458.64800000000002
aF2.86347
aF84.566699999999997
aF51.543900000000001
atp35
a(F11.000341892242432
(lp36
F458.44200000000001
aF2.84999
aF84.602400000000003
aF51.517200000000003
atp37
a(F12.000324010848999
(lp38
F457.71100000000001
aF2.8350599999999999
aF84.602400000000003
aF51.517200000000003
atp39
a(F13.000293970108032
(lp40
F458.52699999999999
aF2.8073700000000001
aF84.602400000000003
aF51.543900000000001
atp41
a(F14.000270843505859
(lp42
F457.637
aF2.79522
aF84.6203
aF51.543900000000001
atp43
a(F15.000251054763794
(lp44
F457.30799999999999
aF2.7726199999999999
aF84.602400000000003
aF51.570500000000003
atp45
a(F16.00023889541626
(lp46
F457.81200000000001
aF2.7531300000000001
aF84.602400000000003
aF51.543900000000001
atp47
a(F17.000169992446899
(lp48
F458.661
aF2.7201599999999999
aF84.566699999999997
aF51.543900000000001
atp49
a(F18.000175952911377
(lp50
F458.43599999999998
aF2.6960099999999998
aF84.602400000000003
aF51.543900000000001
atp51
a(F19.000155925750732
(lp52
F458.02600000000001
aF2.67089
aF84.571100000000001
aF51.543900000000001
atp53
a(F20.000133991241455
(lp54
F457.48200000000003
aF2.6657799999999998
aF84.588999999999999
aF51.543900000000001
atp55
a(F21.000182867050171
(lp56
F458.12599999999998
aF2.6305900000000002
aF84.602400000000003
aF51.543900000000001
atp57
a(F22.000593900680542
(lp58
F458.28199999999998
aF2.6166499999999999
aF84.6203
aF51.543900000000001
atp59
a(F23.000598907470703
(lp60
F458.65899999999999
aF2.5940699999999999
aF84.584599999999995
aF51.543900000000001
atp61
a(F24.000452995300293
(lp62
F458.94099999999997
aF2.57443
aF84.602400000000003
aF51.543900000000001
atp63
a(F25.00052285194397
(lp64
F458.68099999999998
aF2.5517300000000001
aF84.584599999999995
aF51.543900000000001
atp65
a(F26.000308036804199
(lp66
F458.267
aF2.54366
aF84.602400000000003
aF51.543900000000001
atp67
a(F27.000252962112427
(lp68
F458.85899999999998
aF2.5160399999999998
aF84.571100000000001
aF51.543900000000001
atp69
a(F28.000458002090454
(lp70
F458.52800000000002
aF2.5013800000000002
aF84.588999999999999
aF51.543900000000001
atp71
a(F29.000314950942993
(lp72
F459.09500000000003
aF2.4916999999999998
aF84.584599999999995
aF51.543900000000001
atp73
a(F30.000402927398682
(lp74
F458.36200000000002
aF2.4581499999999998
aF84.602400000000003
aF51.570500000000003
atp75
a(F31.000385046005249
(lp76
F459.57100000000003
aF2.4383900000000001
aF84.584599999999995
aF51.543900000000001
atp77
a(F32.00036096572876
(lp78
F459.012
aF2.4221599999999999
aF84.584599999999995
aF51.543900000000001
atp79
a(F33.000339031219482
(lp80
F459.18900000000002
aF2.3881299999999999
aF84.584599999999995
aF51.543900000000001
atp81
a(F34.00031304359436
(lp82
F459.553
aF2.3735499999999998
aF84.602400000000003
aF51.543900000000001
atp83
a(F35.000289916992188
(lp84
F458.60899999999998
aF2.3596400000000002
aF84.6203
aF51.543900000000001
atp85
a(F36.000264883041382
(lp86
F458.92899999999997
aF2.3602699999999999
aF84.602400000000003
aF51.543900000000001
atp87
a(F37.000244855880737
(lp88
F458.25299999999999
aF2.3487200000000001
aF84.6203
aF51.570500000000003
atp89
a(F38.000200986862183
(lp90
F459.048
aF2.3491399999999998
aF84.602400000000003
aF51.543900000000001
atp91
a(F39.000195980072021
(lp92
F459.19400000000002
aF2.3400699999999999
aF84.602400000000003
aF51.543900000000001
atp93
a(F40.000181913375854
(lp94
F459.64299999999997
aF2.34876
aF84.584599999999995
aF51.543900000000001
atp95
a(F41.000149011611938
(lp96
F459.20100000000002
aF2.3431500000000001
aF84.584599999999995
aF51.543900000000001
atp97
a(F42.000128030776978
(lp98
F459.827
aF2.3437600000000001
aF84.602400000000003
aF51.543900000000001
atp99
a(F43.000509023666382
(lp100
F460.11799999999999
aF2.3376800000000002
aF84.602400000000003
aF51.543900000000001
atp101
a(F44.000591039657593
(lp102
F458.577
aF2.3365399999999998
aF84.615899999999996
aF51.543900000000001
atp103
a(F45.000267028808594
(lp104
F459.39800000000002
aF2.3294899999999998
aF84.633799999999994
aF51.570500000000003
atp105
a(F46.000545024871826
(lp106
F459.62700000000001
aF2.31955
aF84.615899999999996
aF51.543900000000001
atp107
a(F47.000519037246704
(lp108
F459.23000000000002
aF2.3320599999999998
aF84.597999999999999
aF51.543900000000001
atp109
a(F48.000126838684082
(lp110
F459.863
aF2.3267799999999998
aF84.615899999999996
aF51.543900000000001
atp111
a(F49.000469923019409
(lp112
F459.72800000000001
aF2.3309299999999999
aF84.597999999999999
aF51.543900000000001
atp113
a(F50.000448942184448
(lp114
F460.30000000000001
aF2.3385799999999999
aF84.615899999999996
aF51.543900000000001
atp115
a(F51.000725030899048
(lp116
F459.66699999999997
aF2.32735
aF84.615899999999996
aF51.543900000000001
atp117
a(F52.000404834747314
(lp118
F460.57400000000001
aF2.3327499999999999
aF84.597999999999999
aF51.543900000000001
atp119
a(F53.000558853149414
(lp120
F459.78699999999998
aF2.33969
aF84.611400000000003
aF51.543900000000001
atp121
a(F54.000355958938599
(lp122
F460.18299999999999
aF2.34571
aF84.611400000000003
aF51.543900000000001
atp123
a(F55.000128030776978
(lp124
F460.49799999999999
aF2.3483700000000001
aF84.597999999999999
aF51.543900000000001
atp125
a(F56.000310897827148
(lp126
F460.202
aF2.3473799999999998
aF84.615899999999996
aF51.517200000000003
atp127
a(F57.000293970108032
(lp128
F460.65600000000001
aF2.36144
aF84.615899999999996
aF51.543900000000001
atp129
a(F58.000262022018433
(lp130
F460.80599999999998
aF2.3586100000000001
aF84.615899999999996
aF51.543900000000001
atp131
a(F59.000233888626099
(lp132
F460.92099999999999
aF2.3650799999999998
aF84.615899999999996
aF51.543900000000001
atp133
a(F60.000212907791138
(lp134
F460.125
aF2.3709500000000001
aF84.615899999999996
aF51.543900000000001
atp135
a(F61.000185966491699
(lp136
F461.267
aF2.3748399999999998
aF84.611400000000003
aF51.543900000000001
atp137
a(F62.000166893005371
(lp138
F460.41500000000002
aF2.3717899999999998
aF84.611400000000003
aF51.543900000000001
atp139
a(F63.000144004821777
(lp140
F461.30399999999997
aF2.3857499999999998
aF84.597999999999999
aF51.543900000000001
atp141
a(F64.000121831893921
(lp142
F461.81400000000002
aF2.3813800000000001
aF84.615899999999996
aF51.543900000000001
atp143
a(F65.000366926193237
(lp144
F459.97199999999998
aF2.38653
aF84.633799999999994
aF51.517200000000003
atp145
a(F66.000584840774536
(lp146
F460.685
aF2.3898999999999999
aF84.615899999999996
aF51.543900000000001
atp147
a(F67.000562906265259
(lp148
F461.25700000000001
aF2.4008400000000001
aF84.615899999999996
aF51.543900000000001
atp149
a(F68.000535011291504
(lp150
F461.08100000000002
aF2.4018199999999998
aF84.615899999999996
aF51.543900000000001
atp151
a(F69.000514030456543
(lp152
F460.91399999999999
aF2.4135
aF84.629300000000001
aF51.543900000000001
atp153
a(F70.000489950180054
(lp154
F461.404
aF2.4116300000000002
aF84.597999999999999
aF51.543900000000001
atp155
a(F71.000466823577881
(lp156
F461.02499999999998
aF2.4148800000000001
aF84.597999999999999
aF51.543900000000001
atp157
a(F72.000442028045654
(lp158
F460.81099999999998
aF2.4164599999999998
aF84.615899999999996
aF51.543900000000001
atp159
a(F73.000416040420532
(lp160
F461.75900000000001
aF2.40794
aF84.615899999999996
aF51.543900000000001
atp161
a(F74.000391960144043
(lp162
F461.20600000000002
aF2.41126
aF84.615899999999996
aF51.543900000000001
atp163
a(F75.000370025634766
(lp164
F462.428
aF2.4045899999999998
aF84.647199999999998
aF51.543900000000001
atp165
a(F76.000349998474121
(lp166
F460.572
aF2.40835
aF84.611400000000003
aF51.543900000000001
atp167
a(F77.000320911407471
(lp168
F462.33800000000002
aF2.3938199999999998
aF84.593599999999995
aF51.543900000000001
atp169
a(F78.000300884246826
(lp170
F461.39699999999999
aF2.38409
aF84.629300000000001
aF51.543900000000001
atp171
a(F79.000275850296021
(lp172
F461.23000000000002
aF2.3657900000000001
aF84.629300000000001
aF51.543900000000001
atp173
a(F80.000257015228271
(lp174
F462.22800000000001
aF2.3366699999999998
aF84.629300000000001
aF51.543900000000001
atp175
a(F81.000236988067627
(lp176
F461.45999999999998
aF2.3005499999999999
aF84.642799999999994
aF51.543900000000001
atp177
a(F82.00020694732666
(lp178
F461.54300000000001
aF2.2793199999999998
aF84.624899999999997
aF51.543900000000001
atp179
a(F83.000183820724487
(lp180
F462.12900000000002
aF2.2686000000000002
aF84.642799999999994
aF51.543900000000001
atp181
a(F84.000159025192261
(lp182
F462.14800000000002
aF2.26634
aF84.606999999999999
aF51.543900000000001
atp183
a(F85.000136852264404
(lp184
F461.43000000000001
aF2.2703600000000002
aF84.642799999999994
aF51.543900000000001
atp185
a(F86.000108957290649
(lp186
F461.49200000000002
aF2.2674699999999999
aF84.642799999999994
aF51.543900000000001
atp187
a(F87.00059986114502
(lp188
F462.21800000000002
aF2.2738399999999999
aF84.642799999999994
aF51.543900000000001
atp189
a(F88.000589847564697
(lp190
F461.71300000000002
aF2.2733099999999999
aF84.642799999999994
aF51.543900000000001
atp191
a(F89.000555992126465
(lp192
F462.95499999999998
aF2.29081
aF84.624899999999997
aF51.543900000000001
atp193
a(F90.00053596496582
(lp194
F461.774
aF2.3138700000000001
aF84.656199999999998
aF51.543900000000001
atp195
a(F91.000547885894775
(lp196
F462.62799999999999
aF2.33189
aF84.669600000000003
aF51.543900000000001
atp197
a(F92.00048303604126
(lp198
F462.52999999999997
aF2.3513899999999999
aF84.638300000000001
aF51.543900000000001
atp199
a(F93.000265836715698
(lp200
F463.00599999999997
aF2.3704000000000001
aF84.638300000000001
aF51.543900000000001
atp201
a(F94.000444889068604
(lp202
F460.75900000000001
aF2.3999700000000002
aF84.656199999999998
aF51.543900000000001
atp203
a(F95.000411033630371
(lp204
F462.03399999999999
aF2.40523
aF84.642799999999994
aF51.543900000000001
atp205
a(F96.00039005279541
(lp206
F460.19999999999999
aF2.4273699999999998
aF84.656199999999998
aF51.543900000000001
atp207
a(F97.00036096572876
(lp208
F463.42500000000001
aF2.4411499999999999
aF84.656199999999998
aF51.543900000000001
atp209
a(F98.000341892242432
(lp210
F462.01900000000001
aF2.4599099999999998
aF84.638300000000001
aF51.543900000000001
atp211
a(F99.000319957733154
(lp212
F463.01900000000001
aF2.4699200000000001
aF84.624899999999997
aF51.543900000000001
atp213
a(F100.00028991699219
(lp214
F463.20499999999998
aF2.4870000000000001
aF84.624899999999997
aF51.543900000000001
atp215
a(F101.00026988983154
(lp216
F462.80700000000002
aF2.5043000000000002
aF84.624899999999997
aF51.543900000000001
atp217
a(F102.00024795532227
(lp218
F462.98399999999998
aF2.5254099999999999
aF84.642799999999994
aF51.543900000000001
atp219
a(F103.0002269744873
(lp220
F462.60399999999998
aF2.5352299999999999
aF84.642799999999994
aF51.543900000000001
atp221
a(F104.00019693374634
(lp222
F462.69900000000001
aF2.5564300000000002
aF84.642799999999994
aF51.543900000000001
atp223
a(F105.00017094612122
(lp224
F463.21100000000001
aF2.5750500000000001
aF84.642799999999994
aF51.543900000000001
atp225
a(F106.00015783309937
(lp226
F459.91699999999997
aF2.5843699999999998
aF84.642799999999994
aF51.543900000000001
atp227
a(F107.00011801719666
(lp228
F462.67399999999998
aF2.59172
aF84.606999999999999
aF51.543900000000001
atp229
a(F108.00062394142151
(lp230
F462.29700000000003
aF2.6076899999999998
aF84.642799999999994
aF51.543900000000001
atp231
a(F109.00059294700623
(lp232
F463.58800000000002
aF2.6293000000000002
aF84.642799999999994
aF51.543900000000001
atp233
a(F110.00029492378235
(lp234
F462.96899999999999
aF2.62717
aF84.660700000000006
aF51.543900000000001
atp235
a(F111.00055503845215
(lp236
F462.47000000000003
aF2.6485699999999999
aF84.642799999999994
aF51.543900000000001
atp237
a(F112.00052189826965
(lp238
F462.71300000000002
aF2.6577799999999998
aF84.660700000000006
aF51.543900000000001
atp239
a(F113.00049781799316
(lp240
F462.87799999999999
aF2.6666400000000001
aF84.642799999999994
aF51.543900000000001
atp241
a(F114.00047588348389
(lp242
F463.99299999999999
aF2.66832
aF84.624899999999997
aF51.543900000000001
atp243
a(F115.00045299530029
(lp244
F463.839
aF2.6767699999999999
aF84.624899999999997
aF51.543900000000001
atp245
a(F116.00043296813965
(lp246
F463.62400000000002
aF2.6852399999999998
aF84.642799999999994
aF51.517299999999999
atp247
a(F117.00044083595276
(lp248
F464.048
aF2.6800999999999999
aF84.624899999999997
aF51.543900000000001
atp249
a(F118.00038695335388
(lp250
F463.00799999999998
aF2.6851500000000001
aF84.642799999999994
aF51.543900000000001
atp251
a(F119.00019097328186
(lp252
F463.68099999999998
aF2.68641
aF84.642799999999994
aF51.543900000000001
atp253
a(F120.00034093856812
(lp254
F463.74799999999999
aF2.6880799999999998
aF84.624899999999997
aF51.543900000000001
atp255
a(F121.00030899047852
(lp256
F463.42399999999998
aF2.6977500000000001
aF84.624899999999997
aF51.543900000000001
atp257
a(F122.00028800964355
(lp258
F464.17399999999998
aF2.7086000000000001
aF84.624899999999997
aF51.543900000000001
atp259
a(F123.00023889541626
(lp260
F464.50900000000001
aF2.7033800000000001
aF84.642799999999994
aF51.517200000000003
atp261
a(F124.00023889541626
(lp262
F464.16000000000003
aF2.7200799999999998
aF84.624899999999997
aF51.543900000000001
atp263
a(F125.00021696090698
(lp264
F463.988
aF2.7229000000000001
aF84.642799999999994
aF51.543900000000001
atp265
a(F126.00019097328186
(lp266
F463.12700000000001
aF2.7316600000000002
aF84.642799999999994
aF51.543900000000001
atp267
a(F127.0004620552063
(lp268
F464.75200000000001
aF2.73516
aF84.642799999999994
aF51.543900000000001
atp269
a(F128.00014781951904
(lp270
F463.94099999999997
aF2.7537400000000001
aF84.638300000000001
aF51.543900000000001
atp271
a(F129.00120782852173
(lp272
F463.53500000000003
aF2.7571099999999999
aF84.624899999999997
aF51.543900000000001
atp273
a(F130.00060701370239
(lp274
F464.07299999999998
aF2.74837
aF84.624899999999997
aF51.543900000000001
atp275
a(F131.00056982040405
(lp276
F462.90600000000001
aF2.7354699999999998
aF84.642799999999994
aF51.517200000000003
atp277
a(F132.00056195259094
(lp278
F464.036
aF2.7372200000000002
aF84.660700000000006
aF51.543900000000001
atp279
a(F133.00061082839966
(lp280
F465.10399999999998
aF2.73603
aF84.642799999999994
aF51.543900000000001
atp281
a(F134.00051593780518
(lp282
F465.041
aF2.7156199999999999
aF84.656199999999998
aF51.543900000000001
atp283
a(F135.00049090385437
(lp284
F462.62299999999999
aF2.72662
aF84.656199999999998
aF51.543900000000001
atp285
a(F136.00047898292542
(lp286
F465.07299999999998
aF2.7153399999999999
aF84.656199999999998
aF51.543900000000001
atp287
a(F137.00034403800964
(lp288
F463.58100000000002
aF2.7313999999999998
aF84.606999999999999
aF51.543900000000001
atp289
a(F138.00042200088501
(lp290
F465.17500000000001
aF2.7219600000000002
aF84.638300000000001
aF51.543900000000001
atp291
a(F139.00039887428284
(lp292
F464.60300000000001
aF2.72058
aF84.642799999999994
aF51.517200000000003
atp293
a(F140.00037097930908
(lp294
F465.40300000000002
aF2.7168899999999998
aF84.642799999999994
aF51.543900000000001
atp295
a(F141.00035405158997
(lp296
F463.88900000000001
aF2.7070599999999998
aF84.660700000000006
aF51.543900000000001
atp297
a(F142.00032901763916
(lp298
F465.37900000000002
aF2.7092499999999999
aF84.656199999999998
aF51.543900000000001
atp299
a(F143.00030183792114
(lp300
F464.90300000000002
aF2.6979899999999999
aF84.638300000000001
aF51.543900000000001
atp301
a(F144.00027799606323
(lp302
F465.899
aF2.7075499999999999
aF84.638300000000001
aF51.543900000000001
atp303
a(F145.00025701522827
(lp304
F465.34899999999999
aF2.69252
aF84.656199999999998
aF51.543900000000001
atp305
a(F146.00023198127747
(lp306
F466.06099999999998
aF2.70018
aF84.642799999999994
aF51.543900000000001
atp307
a(F147.00390696525574
(lp308
F465.09500000000003
aF2.6850999999999998
aF84.642799999999994
aF51.517200000000003
atp309
a(F148.0001859664917
(lp310
F466.02100000000002
aF2.6877300000000002
aF84.656199999999998
aF51.543900000000001
atp311
a(F149.00016093254089
(lp312
F464.84300000000002
aF2.6804700000000001
aF84.656199999999998
aF51.543900000000001
atp313
a(F150.00013899803162
(lp314
F466.44099999999997
aF2.6761300000000001
aF84.638300000000001
aF51.543900000000001
atp315
a(F151.0001118183136
(lp316
F466.56400000000002
aF2.6707299999999998
aF84.638300000000001
aF51.543900000000001
atp317
a(F152.00060796737671
(lp318
F465.75400000000002
aF2.67299
aF84.638300000000001
aF51.543900000000001
atp319
a(F153.00057983398438
(lp320
F466.62700000000001
aF2.6619999999999999
aF84.642799999999994
aF51.543900000000001
atp321
a(F154.0005578994751
(lp322
F465.66699999999997
aF2.6621600000000001
aF84.624899999999997
aF51.543900000000001
atp323
a(F155.00041103363037
(lp324
F466.23200000000003
aF2.66682
aF84.624899999999997
aF51.543900000000001
atp325
a(F156.00042200088501
(lp326
F465.33999999999997
aF2.66838
aF84.638300000000001
aF51.543900000000001
atp327
a(F157.0002269744873
(lp328
F466.452
aF2.65978
aF84.638300000000001
aF51.543900000000001
atp329
a(F158.0005350112915
(lp330
F465.69799999999998
aF2.67334
aF84.656199999999998
aF51.543900000000001
atp331
a(F159.00043797492981
(lp332
F465.79700000000003
aF2.6778900000000001
aF84.638300000000001
aF51.543900000000001
atp333
a(F160.000412940979
(lp334
F466.30599999999998
aF2.6870400000000001
aF84.624899999999997
aF51.543900000000001
atp335
a(F161.0003879070282
(lp336
F466.12400000000002
aF2.6919499999999998
aF84.642799999999994
aF51.543900000000001
atp337
a(F162.00036787986755
(lp338
F466.00299999999999
aF2.69733
aF84.642799999999994
aF51.543900000000001
atp339
a(F163.0003228187561
(lp340
F466.44999999999999
aF2.6967699999999999
aF84.642799999999994
aF51.543900000000001
atp341
a(F164.00001692771912
(lp342
F465.27800000000002
aF2.6924700000000001
aF84.656199999999998
aF51.543900000000001
atp343
a(F165.00002002716064
(lp344
F465.26600000000002
aF2.6968999999999999
aF84.638300000000001
aF51.543900000000001
atp345
a(F166.00048303604126
(lp346
F467.24000000000001
aF2.6841900000000001
aF84.638300000000001
aF51.543900000000001
atp347
a(F167.00024890899658
(lp348
F463.83199999999999
aF2.7034699999999998
aF84.656199999999998
aF51.543900000000001
atp349
a(F168.00022101402283
(lp350
F466.80900000000003
aF2.6937799999999998
aF84.624899999999997
aF51.543900000000001
atp351
a(F169.00020098686218
(lp352
F466.767
aF2.70513
aF84.642799999999994
aF51.543900000000001
atp353
a(F170.00017905235291
(lp354
F466.69
aF2.7144200000000001
aF84.642799999999994
aF51.543900000000001
atp355
a(F171.00015902519226
(lp356
F466.161
aF2.7241
aF84.624899999999997
aF51.543900000000001
atp357
a(F172.00013995170593
(lp358
F465.887
aF2.7282199999999999
aF84.642799999999994
aF51.543900000000001
atp359
a(F173.00062799453735
(lp360
F466.82999999999998
aF2.7353800000000001
aF84.638300000000001
aF51.543900000000001
atp361
a(F174.00060200691223
(lp362
F467.10599999999999
aF2.74702
aF84.606999999999999
aF51.543900000000001
atp363
a(F175.0005738735199
(lp364
F466.892
aF2.7567900000000001
aF84.642799999999994
aF51.543900000000001
atp365
a(F176.00055384635925
(lp366
F467.56599999999997
aF2.7699099999999999
aF84.624899999999997
aF51.543900000000001
atp367
a(F177.00052690505981
(lp368
F466.56
aF2.7783099999999998
aF84.642799999999994
aF51.543900000000001
atp369
a(F178.00050497055054
(lp370
F466.78300000000002
aF2.8019599999999998
aF84.642799999999994
aF51.543900000000001
atp371
a(F179.00048089027405
(lp372
F467.57799999999997
aF2.8066900000000001
aF84.660700000000006
aF51.570500000000003
atp373
a(F180.0000319480896
(lp374
F467.31
aF2.8260299999999998
aF84.642799999999994
aF51.543900000000001
atp375
a(F181.00043296813965
(lp376
F467.00099999999998
aF2.8289900000000001
aF84.606999999999999
aF51.543900000000001
atp377
a(F182.00040888786316
(lp378
F467.78699999999998
aF2.8354599999999999
aF84.624899999999997
aF51.543900000000001
atp379
a(F183.00038290023804
(lp380
F466.84100000000001
aF2.8364199999999999
aF84.642799999999994
aF51.543900000000001
atp381
a(F184.00036096572876
(lp382
F468.28800000000001
aF2.84334
aF84.624899999999997
aF51.543900000000001
atp383
assS'wind'
p384
(dp385
g10
I1
sg11
F1510753085.9064889
sg12
(lp386
(F1.1205673217773438e-05
(F0.19
F0.34999999999999998
F0.040000000000000001
ttp387
a(F1.9998772144317627
(F0.17000000000000001
F0.35999999999999999
F0.050000000000000003
ttp388
a(F4.0004150867462158
(F0.20999999999999999
F0.33000000000000002
F0.01
ttp389
a(F6.0002820491790771
(F0.33000000000000002
F0.32000000000000001
F-0.01
ttp390
a(F7.9997670650482178
(F0.38
F0.23999999999999999
F0.089999999999999997
ttp391
a(F10.00042200088501
(F0.41999999999999998
F0.27000000000000002
F-0.040000000000000001
ttp392
a(F11.999982118606567
(F0.40000000000000002
F0.20999999999999999
F0.040000000000000001
ttp393
a(F13.999711990356445
(F0.28000000000000003
F0.050000000000000003
F0.13
ttp394
a(F15.998316049575806
(F0.27000000000000002
F0.10000000000000001
F0.050000000000000003
ttp395
a(F17.998934030532837
(F0.22
F0.029999999999999999
F-0.02
ttp396
a(F19.998678207397461
(F0.26000000000000001
F0.080000000000000002
F-0.02
ttp397
a(F21.998289108276367
(F0.17000000000000001
F0.14000000000000001
F0.029999999999999999
ttp398
a(F23.998889207839966
(F0.11
F0.10000000000000001
F0.040000000000000001
ttp399
a(F25.998529195785522
(F0.050000000000000003
F0.14999999999999999
F0.059999999999999998
ttp400
a(F27.998321056365967
(F-0.029999999999999999
F0.11
F0.12
ttp401
a(F29.997944116592407
(F-0.050000000000000003
F0.12
F0.089999999999999997
ttp402
a(F31.997457027435303
(F-0.070000000000000007
F0.17999999999999999
F0.059999999999999998
ttp403
a(F33.997088193893433
(F-0.12
F0.14000000000000001
F0.070000000000000007
ttp404
a(F35.997727155685425
(F-0.11
F0.16
F0.089999999999999997
ttp405
a(F37.997429132461548
(F-0.16
F0.16
F0.080000000000000002
ttp406
a(F39.997241020202637
(F-0.14000000000000001
F0.14000000000000001
F0.02
ttp407
a(F41.997673034667969
(F-0.080000000000000002
F0.14000000000000001
F-0.01
ttp408
a(F43.997334003448486
(F-0.02
F0.20000000000000001
F-0.050000000000000003
ttp409
a(F45.996909141540527
(F0.050000000000000003
F0.19
F-0.11
ttp410
a(F47.996602058410645
(F0.089999999999999997
F0.20999999999999999
F-0.10000000000000001
ttp411
a(F49.997161149978638
(F0.16
F0.26000000000000001
F-0.11
ttp412
a(F51.996897220611572
(F0.22
F0.26000000000000001
F-0.14999999999999999
ttp413
a(F53.996496200561523
(F0.26000000000000001
F0.32000000000000001
F-0.14999999999999999
ttp414
a(F55.996174097061157
(F0.25
F0.42999999999999999
F-0.14999999999999999
ttp415
a(F57.996798038482666
(F0.37
F0.34999999999999998
F-0.10000000000000001
ttp416
a(F59.996437072753906
(F0.38
F0.41999999999999998
F-0.089999999999999997
ttp417
a(F61.996084213256836
(F0.38
F0.39000000000000001
F-0.02
ttp418
a(F63.995731115341187
(F0.46000000000000002
F0.31
F0.040000000000000001
ttp419
a(F65.996345043182373
(F0.46999999999999997
F0.20000000000000001
F0.070000000000000007
ttp420
a(F67.996828079223633
(F0.42999999999999999
F-0.02
F0.14999999999999999
ttp421
a(F69.995617151260376
(F0.31
F-0.089999999999999997
F0.20999999999999999
ttp422
a(F71.995249032974243
(F0.26000000000000001
F-0.14999999999999999
F0.19
ttp423
a(F73.994971990585327
(F0.12
F-0.35999999999999999
F0.20000000000000001
ttp424
a(F75.995649099349976
(F-0.050000000000000003
F-0.66000000000000003
F0.050000000000000003
ttp425
a(F77.995212078094482
(F0.02
F-0.73999999999999999
F0.080000000000000002
ttp426
a(F79.994821071624756
(F0.19
F-1.1200000000000001
F-0.01
ttp427
a(F81.994522094726562
(F0.25
F-1.04
F-0.14000000000000001
ttp428
a(F83.994283199310303
(F0.13
F-0.77000000000000002
F-0.10000000000000001
ttp429
a(F85.994851112365723
(F0.17000000000000001
F-0.78000000000000003
F-0.050000000000000003
ttp430
a(F87.994428157806396
(F0.22
F-0.64000000000000001
F-0.16
ttp431
a(F89.99303412437439
(F0.22
F-0.29999999999999999
F-0.38
ttp432
a(F91.994693040847778
(F0.23999999999999999
F-0.10000000000000001
F-0.19
ttp433
a(F93.993340015411377
(F0.28000000000000003
F-0.14000000000000001
F-0.070000000000000007
ttp434
a(F95.994024991989136
(F0.34999999999999998
F-0.029999999999999999
F-0.070000000000000007
ttp435
a(F97.993612051010132
(F0.14999999999999999
F-0.050000000000000003
F0.040000000000000001
ttp436
a(F99.992262125015259
(F0.20999999999999999
F-0.029999999999999999
F0.12
ttp437
a(F101.99637222290039
(F0.22
F-0.17000000000000001
F0
ttp438
a(F103.9925320148468
(F0.26000000000000001
F-0.28000000000000003
F-0.13
ttp439
a(F105.99316310882568
(F0.31
F-0.23000000000000001
F-0.059999999999999998
ttp440
a(F107.99332618713379
(F0.40999999999999998
F-0.23999999999999999
F-0.059999999999999998
ttp441
a(F109.99240899085999
(F0.51000000000000001
F-0.23999999999999999
F0.10000000000000001
ttp442
a(F111.9920711517334
(F0.46999999999999997
F-0.22
F0.11
ttp443
a(F113.99180603027344
(F0.52000000000000002
F-0.37
F0.10000000000000001
ttp444
a(F115.99232602119446
(F0.59999999999999998
F-0.32000000000000001
F-0.01
ttp445
a(F117.99203109741211
(F0.45000000000000001
F-0.27000000000000002
F-0.13
ttp446
a(F119.99274706840515
(F0.34000000000000002
F-0.26000000000000001
F-0.050000000000000003
ttp447
a(F121.99224019050598
(F0.23000000000000001
F-0.40000000000000002
F-0.02
ttp448
a(F123.99189519882202
(F0.23000000000000001
F-0.28000000000000003
F0.20000000000000001
ttp449
a(F125.99161100387573
(F0.20999999999999999
F-0.38
F0.23000000000000001
ttp450
a(F127.99225902557373
(F0.14999999999999999
F-0.62
F0.14000000000000001
ttp451
a(F129.99093198776245
(F0.14999999999999999
F-0.57999999999999996
F-0.02
ttp452
a(F131.99157619476318
(F0.10000000000000001
F-0.55000000000000004
F0.050000000000000003
ttp453
a(F133.99115800857544
(F0.089999999999999997
F-0.54000000000000004
F0.12
ttp454
a(F135.99075603485107
(F0.050000000000000003
F-0.59999999999999998
F0.14000000000000001
ttp455
a(F137.99596905708313
(F0.089999999999999997
F-0.58999999999999997
F0.16
ttp456
a(F139.99113607406616
(F0.20000000000000001
F-0.58999999999999997
F0.23999999999999999
ttp457
a(F141.99070501327515
(F0.40000000000000002
F-0.75
F0.25
ttp458
a(F143.99039006233215
(F0.55000000000000004
F-0.72999999999999998
F0.17999999999999999
ttp459
a(F145.98998713493347
(F0.62
F-0.65000000000000002
F0.11
ttp460
a(F147.98965907096863
(F0.57999999999999996
F-0.56999999999999995
F0.12
ttp461
a(F149.98948121070862
(F0.56999999999999995
F-0.46999999999999997
F0.12
ttp462
a(F151.9899480342865
(F0.57999999999999996
F-0.31
F0.059999999999999998
ttp463
a(F153.98950815200806
(F0.54000000000000004
F-0.28000000000000003
F0.070000000000000007
ttp464
a(F155.98939919471741
(F0.52000000000000002
F-0.29999999999999999
F0.11
ttp465
a(F157.9892680644989
(F0.55000000000000004
F-0.41999999999999998
F0.10000000000000001
ttp466
a(F159.98976802825928
(F0.55000000000000004
F-0.42999999999999999
F0.02
ttp467
a(F161.9893810749054
(F0.5
F-0.41999999999999998
F-0.029999999999999999
ttp468
a(F163.9890501499176
(F0.42999999999999999
F-0.45000000000000001
F-0.050000000000000003
ttp469
a(F165.99011301994324
(F0.38
F-0.44
F-0.050000000000000003
ttp470
a(F167.98960304260254
(F0.28000000000000003
F-0.42999999999999999
F-0.040000000000000001
ttp471
a(F169.98952412605286
(F0.20999999999999999
F-0.37
F-0.02
ttp472
a(F171.98916602134705
(F0.16
F-0.33000000000000002
F-0.01
ttp473
a(F173.990079164505
(F0.040000000000000001
F-0.32000000000000001
F0.059999999999999998
ttp474
a(F175.9893012046814
(F-0.01
F-0.25
F0.16
ttp475
a(F177.98820519447327
(F0.029999999999999999
F-0.11
F0.20999999999999999
ttp476
a(F179.98778200149536
(F-0.19
F-0.23000000000000001
F0.050000000000000003
ttp477
assS'dlt'
p478
(dp479
g10
I1
sg11
F1510753085.4987421
sg12
(lp480
(F1.1920928955078125e-05
(lp481
I0
aI0
aF0.104355
aF0
aF0.31569999999999998
aF0
aF5623.71
aF0
aF0.104945
aF0
aF0.31748599999999999
aF0
aF87.711500000000001
aF0
aF22.588799999999999
aF0
aF19.066299999999998
aF0
aF-614.33100000000002
aF0
aF0.39395000000000002
aF0
aF0.63545499999999999
aF0
aF1.01447
aF0
aF1.1980500000000001
aF0
aF3
atp482
a(F1.005903959274292
(lp483
I0
aI0
aF0.105463
aF0
aF0.31619599999999998
aF0
aF5732.1199999999999
aF0
aF0.106071
aF0
aF0.318019
aF0
aF87.700900000000004
aF0
aF22.5913
aF0
aF18.9755
aF0
aF-614.20299999999997
aF0
aF0.39395000000000002
aF0
aF0.63475000000000004
aF0
aF1.01373
aF0
aF1.1973100000000001
aF0
aF3
atp484
a(F2.0087168216705322
(lp485
I0
aI0
aF0.105021
aF0
aF0.316774
aF0
aF5592.2200000000003
aF0
aF0.105611
aF0
aF0.31855499999999998
aF0
aF87.710800000000006
aF0
aF22.589500000000001
aF0
aF19.052199999999999
aF0
aF-614.21100000000001
aF0
aF0.39395000000000002
aF0
aF0.63549
aF0
aF1.0145599999999999
aF0
aF1.19821
aF0
aF3
atp486
a(F3.0156610012054443
(lp487
I0
aI0
aF0.10380399999999999
aF0
aF0.31712800000000002
aF0
aF5274.8999999999996
aF0
aF0.104355
aF0
aF0.31880999999999998
aF0
aF87.708100000000002
aF0
aF22.590599999999998
aF0
aF19.0472
aF0
aF-614.38800000000003
aF0
aF0.39395000000000002
aF0
aF0.63551100000000005
aF0
aF1.0145500000000001
aF0
aF1.19824
aF0
aF3
atp488
a(F4.0183908939361572
(lp489
I0
aI0
aF0.103085
aF0
aF0.31757600000000002
aF0
aF5397.8299999999999
aF0
aF0.103644
aF0
aF0.319299
aF0
aF87.719300000000004
aF0
aF22.585799999999999
aF0
aF19.1342
aF0
aF-614.26499999999999
aF0
aF0.39395000000000002
aF0
aF0.63633700000000004
aF0
aF1.0154000000000001
aF0
aF1.19895
aF0
aF3
atp490
a(F5.0213148593902588
(lp491
I0
aI0
aF0.102302
aF0
aF0.31737399999999999
aF0
aF5297.5500000000002
aF0
aF0.10284699999999999
aF0
aF0.31906400000000001
aF0
aF87.708100000000002
aF0
aF22.591100000000001
aF0
aF19.057400000000001
aF0
aF-614.70600000000002
aF0
aF0.39395000000000002
aF0
aF0.63548000000000004
aF0
aF1.0144599999999999
aF0
aF1.19821
aF0
aF3
atp492
a(F6.0321309566497803
(lp493
I0
aI0
aF0.10212
aF0
aF0.31848100000000001
aF0
aF5400.3400000000001
aF0
aF0.102675
aF0
aF0.32020999999999999
aF0
aF87.717299999999994
aF0
aF22.5871
aF0
aF19.133700000000001
aF0
aF-614.26400000000001
aF0
aF0.39395000000000002
aF0
aF0.63628099999999999
aF0
aF1.01525
aF0
aF1.1991499999999999
aF0
aF3
atp494
a(F7.0399608612060547
(lp495
I0
aI0
aF0.10177899999999999
aF0
aF0.31864100000000001
aF0
aF5633.5699999999997
aF0
aF0.102355
aF0
aF0.32044699999999998
aF0
aF87.719700000000003
aF0
aF22.586500000000001
aF0
aF19.1205
aF0
aF-614.12099999999998
aF0
aF0.39395000000000002
aF0
aF0.63624700000000001
aF0
aF1.01529
aF0
aF1.19922
aF0
aF3
atp496
a(F8.0517189502716064
(lp497
I0
aI0
aF0.101595
aF0
aF0.31862099999999999
aF0
aF5768.46
aF0
aF0.102184
aF0
aF0.32046999999999998
aF0
aF87.710800000000006
aF0
aF22.592600000000001
aF0
aF19.046500000000002
aF0
aF-614.10799999999995
aF0
aF0.39395000000000002
aF0
aF0.63565099999999997
aF0
aF1.0144899999999999
aF0
aF1.19811
aF0
aF3
atp498
a(F9.0575459003448486
(lp499
I0
aI0
aF0.101642
aF0
aF0.318054
aF0
aF5502.6800000000003
aF0
aF0.102204
aF0
aF0.31981399999999999
aF0
aF87.721800000000002
aF0
aF22.5883
aF0
aF19.113800000000001
aF0
aF-613.93600000000004
aF0
aF0.39395000000000002
aF0
aF0.63636700000000002
aF0
aF1.01528
aF0
aF1.1991099999999999
aF0
aF3
atp500
a(F10.062441825866699
(lp501
I0
aI0
aF0.10188899999999999
aF0
aF0.31841599999999998
aF0
aF5684.3400000000001
aF0
aF0.10247100000000001
aF0
aF0.32023600000000002
aF0
aF87.725800000000007
aF0
aF22.5884
aF0
aF19.100999999999999
aF0
aF-613.93899999999996
aF0
aF0.39395000000000002
aF0
aF0.63627999999999996
aF0
aF1.01528
aF0
aF1.1988399999999999
aF0
aF3
atp502
a(F11.07029390335083
(lp503
I0
aI0
aF0.10186099999999999
aF0
aF0.31886500000000001
aF0
aF5365.8500000000004
aF0
aF0.10241
aF0
aF0.32058599999999998
aF0
aF87.725899999999996
aF0
aF22.588799999999999
aF0
aF19.116499999999998
aF0
aF-614.11800000000005
aF0
aF0.39395000000000002
aF0
aF0.63632699999999998
aF0
aF1.0152699999999999
aF0
aF1.1989399999999999
aF0
aF3
atp504
a(F12.081028938293457
(lp505
I0
aI0
aF0.101899
aF0
aF0.31777699999999998
aF0
aF5543.1499999999996
aF0
aF0.102467
aF0
aF0.319548
aF0
aF87.7059
aF0
aF22.596299999999999
aF0
aF18.933900000000001
aF0
aF-614.74699999999996
aF0
aF0.39395000000000002
aF0
aF0.63482099999999997
aF0
aF1.01362
aF0
aF1.1973499999999999
aF0
aF3
atp506
a(F13.089648962020874
(lp507
I0
aI0
aF0.101732
aF0
aF0.31862200000000002
aF0
aF5537.2399999999998
aF0
aF0.102299
aF0
aF0.32039600000000001
aF0
aF87.705699999999993
aF0
aF22.597200000000001
aF0
aF18.933900000000001
aF0
aF-613.96799999999996
aF0
aF0.39395000000000002
aF0
aF0.63485599999999998
aF0
aF1.0137
aF0
aF1.1972799999999999
aF0
aF3
atp508
a(F14.104777812957764
(lp509
I0
aI0
aF0.10195700000000001
aF0
aF0.31789600000000001
aF0
aF5570.8299999999999
aF0
aF0.10252799999999999
aF0
aF0.31967699999999999
aF0
aF87.701800000000006
aF0
aF22.596800000000002
aF0
aF18.939
aF0
aF-614.12599999999998
aF0
aF0.39395000000000002
aF0
aF0.63492199999999999
aF0
aF1.01363
aF0
aF1.19743
aF0
aF3
atp510
a(F15.106499910354614
(lp511
I0
aI0
aF0.101729
aF0
aF0.31875100000000001
aF0
aF5333.3699999999999
aF0
aF0.102274
aF0
aF0.32046000000000002
aF0
aF87.708299999999994
aF0
aF22.595400000000001
aF0
aF19.024100000000001
aF0
aF-613.89400000000001
aF0
aF0.39395000000000002
aF0
aF0.635714
aF0
aF1.0145200000000001
aF0
aF1.19817
aF0
aF3
atp512
a(F16.122448921203613
(lp513
I0
aI0
aF0.102433
aF0
aF0.31811800000000001
aF0
aF5413.8400000000001
aF0
aF0.10299
aF0
aF0.31985000000000002
aF0
aF87.709900000000005
aF0
aF22.595700000000001
aF0
aF19.015799999999999
aF0
aF-613.95500000000004
aF0
aF0.39395000000000002
aF0
aF0.63558999999999999
aF0
aF1.01454
aF0
aF1.1983299999999999
aF0
aF3
atp514
a(F17.134454965591431
(lp515
I0
aI0
aF0.10192900000000001
aF0
aF0.31803599999999999
aF0
aF5273.3100000000004
aF0
aF0.102469
aF0
aF0.31972200000000001
aF0
aF87.718999999999994
aF0
aF22.5915
aF0
aF19.099699999999999
aF0
aF-613.69799999999998
aF0
aF0.39395000000000002
aF0
aF0.63636700000000002
aF0
aF1.0153000000000001
aF0
aF1.19885
aF0
aF3
atp516
a(F18.137004852294922
(lp517
I0
aI0
aF0.101449
aF0
aF0.31868600000000002
aF0
aF5466.04
aF0
aF0.102006
aF0
aF0.320438
aF0
aF87.709100000000007
aF0
aF22.596900000000002
aF0
aF19.0242
aF0
aF-613.89700000000005
aF0
aF0.39395000000000002
aF0
aF0.63563199999999997
aF0
aF1.01458
aF0
aF1.1980299999999999
aF0
aF3
atp518
a(F19.141952991485596
(lp519
I0
aI0
aF0.10141699999999999
aF0
aF0.31815199999999999
aF0
aF5342.1400000000003
aF0
aF0.101962
aF0
aF0.31986100000000001
aF0
aF87.699399999999997
aF0
aF22.599900000000002
aF0
aF18.936
aF0
aF-614.26900000000001
aF0
aF0.39395000000000002
aF0
aF0.634876
aF0
aF1.0138499999999999
aF0
aF1.19764
aF0
aF3
atp520
a(F20.151979923248291
(lp521
I0
aI0
aF0.101686
aF0
aF0.31754199999999999
aF0
aF5312.4899999999998
aF0
aF0.102229
aF0
aF0.31923800000000002
aF0
aF87.710599999999999
aF0
aF22.597999999999999
aF0
aF19.0212
aF0
aF-614.351
aF0
aF0.39395000000000002
aF0
aF0.63553599999999999
aF0
aF1.0146500000000001
aF0
aF1.19815
aF0
aF3
atp522
a(F21.164626836776733
(lp523
I0
aI0
aF0.101766
aF0
aF0.318637
aF0
aF5470.04
aF0
aF0.102326
aF0
aF0.32038899999999998
aF0
aF87.725499999999997
aF0
aF22.593499999999999
aF0
aF19.099299999999999
aF0
aF-613.875
aF0
aF0.39389299999999999
aF0
aF0.63634500000000005
aF0
aF1.0153399999999999
aF0
aF1.19889
aF0
aF3
atp524
a(F22.168588876724243
(lp525
I0
aI0
aF0.1016
aF0
aF0.31859100000000001
aF0
aF5426.3699999999999
aF0
aF0.10215399999999999
aF0
aF0.32032899999999997
aF0
aF87.7119
aF0
aF22.598800000000001
aF0
aF19.015899999999998
aF0
aF-613.81700000000001
aF0
aF0.39389299999999999
aF0
aF0.63554699999999997
aF0
aF1.01447
aF0
aF1.1979599999999999
aF0
aF3
atp526
a(F23.170217990875244
(lp527
I0
aI0
aF0.101962
aF0
aF0.31799300000000003
aF0
aF5050.0299999999997
aF0
aF0.10248
aF0
aF0.31960699999999997
aF0
aF87.7256
aF0
aF22.594000000000001
aF0
aF19.0884
aF0
aF-613.89400000000001
aF0
aF0.39384200000000003
aF0
aF0.63627299999999998
aF0
aF1.01545
aF0
aF1.19902
aF0
aF3
atp528
a(F24.174086809158325
(lp529
I0
aI0
aF0.10220600000000001
aF0
aF0.31837199999999999
aF0
aF5046.1999999999998
aF0
aF0.102725
aF0
aF0.31998700000000002
aF0
aF87.714299999999994
aF0
aF22.599900000000002
aF0
aF19.020600000000002
aF0
aF-613.83600000000001
aF0
aF0.39384200000000003
aF0
aF0.63550099999999998
aF0
aF1.01451
aF0
aF1.1980900000000001
aF0
aF3
atp530
a(F25.175884962081909
(lp531
I0
aI0
aF0.101508
aF0
aF0.31899300000000003
aF0
aF5217.3999999999996
aF0
aF0.10204100000000001
aF0
aF0.32066600000000001
aF0
aF87.724199999999996
aF0
aF22.595199999999998
aF0
aF19.098099999999999
aF0
aF-613.71299999999997
aF0
aF0.393785
aF0
aF0.63631300000000002
aF0
aF1.0155000000000001
aF0
aF1.1990700000000001
aF0
aF3
atp532
a(F26.180736780166626
(lp533
I0
aI0
aF0.10183200000000001
aF0
aF0.31911400000000001
aF0
aF5094.7200000000003
aF0
aF0.102353
aF0
aF0.32074799999999998
aF0
aF87.710999999999999
aF0
aF22.6004
aF0
aF19.004300000000001
aF0
aF-613.86300000000006
aF0
aF0.393785
aF0
aF0.63555499999999998
aF0
aF1.0145900000000001
aF0
aF1.1980999999999999
aF0
aF3
atp534
a(F27.182651996612549
(lp535
I0
aI0
aF0.101744
aF0
aF0.31859799999999999
aF0
aF5050.7600000000002
aF0
aF0.102261
aF0
aF0.32021500000000003
aF0
aF87.7209
aF0
aF22.596800000000002
aF0
aF19.0944
aF0
aF-613.96699999999998
aF0
aF0.39374100000000001
aF0
aF0.63621700000000003
aF0
aF1.01535
aF0
aF1.19889
aF0
aF3
atp536
a(F28.186452865600586
(lp537
I0
aI0
aF0.101871
aF0
aF0.31862600000000002
aF0
aF5306.5600000000004
aF0
aF0.10241500000000001
aF0
aF0.320326
aF0
aF87.701599999999999
aF0
aF22.603999999999999
aF0
aF18.924900000000001
aF0
aF-614.21400000000006
aF0
aF0.39374100000000001
aF0
aF0.63478900000000005
aF0
aF1.01376
aF0
aF1.1974
aF0
aF3
atp538
a(F29.190272808074951
(lp539
I0
aI0
aF0.102283
aF0
aF0.31868400000000002
aF0
aF5100.4899999999998
aF0
aF0.102807
aF0
aF0.32031799999999999
aF0
aF87.717699999999994
aF0
aF22.5975
aF0
aF19.0992
aF0
aF-613.35000000000002
aF0
aF0.393702
aF0
aF0.63628300000000004
aF0
aF1.01528
aF0
aF1.1989099999999999
aF0
aF3
atp540
a(F30.193722009658813
(lp541
I0
aI0
aF0.101593
aF0
aF0.31844299999999998
aF0
aF5138.54
aF0
aF0.102117
aF0
aF0.32008799999999998
aF0
aF87.700500000000005
aF0
aF22.604800000000001
aF0
aF18.918199999999999
aF0
aF-614.03499999999997
aF0
aF0.393702
aF0
aF0.63475999999999999
aF0
aF1.0136000000000001
aF0
aF1.19736
aF0
aF3
atp542
a(F31.19691801071167
(lp543
I0
aI0
aF0.10156999999999999
aF0
aF0.31870700000000002
aF0
aF5094.6199999999999
aF0
aF0.10209
aF0
aF0.32033899999999998
aF0
aF87.708299999999994
aF0
aF22.602499999999999
aF0
aF19.0029
aF0
aF-613.92999999999995
aF0
aF0.393702
aF0
aF0.63552299999999995
aF0
aF1.01451
aF0
aF1.1981900000000001
aF0
aF3
atp544
a(F32.197722911834717
(lp545
I0
aI0
aF0.101386
aF0
aF0.31878699999999999
aF0
aF5172.1000000000004
aF0
aF0.101913
aF0
aF0.32044400000000001
aF0
aF87.718299999999999
aF0
aF22.5989
aF0
aF19.081499999999998
aF0
aF-613.86300000000006
aF0
aF0.393702
aF0
aF0.63614700000000002
aF0
aF1.01518
aF0
aF1.1988700000000001
aF0
aF3
atp546
a(F33.201599836349487
(lp547
I0
aI0
aF0.101225
aF0
aF0.31846600000000003
aF0
aF4916.0200000000004
aF0
aF0.101725
aF0
aF0.32003900000000002
aF0
aF87.708600000000004
aF0
aF22.6038
aF0
aF18.999300000000002
aF0
aF-613.91700000000003
aF0
aF0.393702
aF0
aF0.63546400000000003
aF0
aF1.01444
aF0
aF1.1980599999999999
aF0
aF3
atp548
a(F34.204482793807983
(lp549
I0
aI0
aF0.101465
aF0
aF0.31960899999999998
aF0
aF4851.4700000000003
aF0
aF0.10196
aF0
aF0.32116800000000001
aF0
aF87.720600000000005
aF0
aF22.599399999999999
aF0
aF19.076599999999999
aF0
aF-613.82899999999995
aF0
aF0.393702
aF0
aF0.63627699999999998
aF0
aF1.0152399999999999
aF0
aF1.19885
aF0
aF3
atp550
a(F35.206398010253906
(lp551
I0
aI0
aF0.101659
aF0
aF0.31834499999999999
aF0
aF5106.1199999999999
aF0
aF0.10218099999999999
aF0
aF0.31997900000000001
aF0
aF87.708699999999993
aF0
aF22.604500000000002
aF0
aF18.980499999999999
aF0
aF-613.99900000000002
aF0
aF0.393702
aF0
aF0.63553999999999999
aF0
aF1.0144
aF0
aF1.19818
aF0
aF3
atp552
a(F36.214070796966553
(lp553
I0
aI0
aF0.101338
aF0
aF0.319382
aF0
aF5033.25
aF0
aF0.10185
aF0
aF0.32099800000000001
aF0
aF87.698800000000006
aF0
aF22.607500000000002
aF0
aF18.906500000000001
aF0
aF-614.00599999999997
aF0
aF0.393702
aF0
aF0.634768
aF0
aF1.01362
aF0
aF1.19737
aF0
aF3
atp554
a(F37.216852903366089
(lp555
I0
aI0
aF0.101176
aF0
aF0.31931399999999999
aF0
aF5073.9099999999999
aF0
aF0.101692
aF0
aF0.32094200000000001
aF0
aF87.706000000000003
aF0
aF22.605799999999999
aF0
aF18.980799999999999
aF0
aF-614.31700000000001
aF0
aF0.393702
aF0
aF0.63546800000000003
aF0
aF1.01431
aF0
aF1.19821
aF0
aF3
atp556
a(F38.225801944732666
(lp557
I0
aI0
aF0.10169400000000001
aF0
aF0.31930999999999998
aF0
aF5025.1499999999996
aF0
aF0.10220799999999999
aF0
aF0.32092300000000001
aF0
aF87.718199999999996
aF0
aF22.601099999999999
aF0
aF19.064900000000002
aF0
aF-614.447
aF0
aF0.393702
aF0
aF0.63631599999999999
aF0
aF1.0152699999999999
aF0
aF1.1990799999999999
aF0
aF3
atp558
a(F39.22958779335022
(lp559
I0
aI0
aF0.10142900000000001
aF0
aF0.31894400000000001
aF0
aF5012.9399999999996
aF0
aF0.10194
aF0
aF0.32055099999999997
aF0
aF87.708399999999997
aF0
aF22.6067
aF0
aF18.993200000000002
aF0
aF-614.51199999999994
aF0
aF0.393702
aF0
aF0.63558599999999998
aF0
aF1.0144299999999999
aF0
aF1.1980999999999999
aF0
aF3
atp560
a(F40.238471984863281
(lp561
I0
aI0
aF0.101272
aF0
aF0.31884800000000002
aF0
aF4999.6800000000003
aF0
aF0.101781
aF0
aF0.32045000000000001
aF0
aF87.709100000000007
aF0
aF22.606000000000002
aF0
aF18.993600000000001
aF0
aF-614.35400000000004
aF0
aF0.393702
aF0
aF0.63556900000000005
aF0
aF1.0143899999999999
aF0
aF1.1979
aF0
aF3
atp562
a(F41.240257978439331
(lp563
I0
aI0
aF0.10084700000000001
aF0
aF0.31893700000000003
aF0
aF5252.25
aF0
aF0.10138
aF0
aF0.32062099999999999
aF0
aF87.720500000000001
aF0
aF22.602399999999999
aF0
aF19.064900000000002
aF0
aF-613.87800000000004
aF0
aF0.393702
aF0
aF0.63622599999999996
aF0
aF1.0153399999999999
aF0
aF1.19895
aF0
aF3
atp564
a(F42.24580192565918
(lp565
I0
aI0
aF0.101358
aF0
aF0.31835400000000003
aF0
aF4836.0600000000004
aF0
aF0.101851
aF0
aF0.31990099999999999
aF0
aF87.706599999999995
aF0
aF22.607500000000002
aF0
aF18.985900000000001
aF0
aF-614.053
aF0
aF0.393702
aF0
aF0.63553099999999996
aF0
aF1.0144599999999999
aF0
aF1.1980999999999999
aF0
aF3
atp566
a(F43.253945827484131
(lp567
I0
aI0
aF0.101538
aF0
aF0.31852399999999997
aF0
aF4902.7600000000002
aF0
aF0.102038
aF0
aF0.32009300000000002
aF0
aF87.708600000000004
aF0
aF22.608599999999999
aF0
aF18.966899999999999
aF0
aF-613.88
aF0
aF0.393702
aF0
aF0.63557900000000001
aF0
aF1.01448
aF0
aF1.19814
aF0
aF3
atp568
a(F44.256753921508789
(lp569
I0
aI0
aF0.101549
aF0
aF0.319631
aF0
aF4999.8900000000003
aF0
aF0.102059
aF0
aF0.32123699999999999
aF0
aF87.720799999999997
aF0
aF22.6037
aF0
aF19.053999999999998
aF0
aF-613.77599999999995
aF0
aF0.393702
aF0
aF0.63624000000000003
aF0
aF1.0153700000000001
aF0
aF1.1991499999999999
aF0
aF3
atp570
a(F45.26270580291748
(lp571
I0
aI0
aF0.101594
aF0
aF0.31931700000000002
aF0
aF5017.6599999999999
aF0
aF0.102107
aF0
aF0.32092700000000002
aF0
aF87.719200000000001
aF0
aF22.604299999999999
aF0
aF19.035799999999998
aF0
aF-613.43499999999995
aF0
aF0.393702
aF0
aF0.636208
aF0
aF1.0152600000000001
aF0
aF1.1988399999999999
aF0
aF3
atp572
a(F46.265520811080933
(lp573
I0
aI0
aF0.101287
aF0
aF0.31926199999999999
aF0
aF4943.3100000000004
aF0
aF0.10179000000000001
aF0
aF0.32084800000000002
aF0
aF87.698400000000007
aF0
aF22.611699999999999
aF0
aF18.871300000000002
aF0
aF-614.21100000000001
aF0
aF0.393702
aF0
aF0.63480800000000004
aF0
aF1.0136000000000001
aF0
aF1.19723
aF0
aF3
atp574
a(F47.267343997955322
(lp575
I0
aI0
aF0.101031
aF0
aF0.31913599999999998
aF0
aF5026.5100000000002
aF0
aF0.10154199999999999
aF0
aF0.32074799999999998
aF0
aF87.706500000000005
aF0
aF22.609400000000001
aF0
aF18.954899999999999
aF0
aF-614.08799999999997
aF0
aF0.393702
aF0
aF0.63549
aF0
aF1.0143899999999999
aF0
aF1.19811
aF0
aF3
atp576
a(F48.274207830429077
(lp577
I0
aI0
aF0.10118099999999999
aF0
aF0.31902900000000001
aF0
aF5048.0699999999997
aF0
aF0.10169400000000001
aF0
aF0.32064799999999999
aF0
aF87.708399999999997
aF0
aF22.6097
aF0
aF18.945399999999999
aF0
aF-614.04700000000003
aF0
aF0.393702
aF0
aF0.63550499999999999
aF0
aF1.0145299999999999
aF0
aF1.1979599999999999
aF0
aF3
atp578
a(F49.285019874572754
(lp579
I0
aI0
aF0.101323
aF0
aF0.31975599999999998
aF0
aF5007.1300000000001
aF0
aF0.10183300000000001
aF0
aF0.32136500000000001
aF0
aF87.718900000000005
aF0
aF22.605799999999999
aF0
aF19.041399999999999
aF0
aF-613.92999999999995
aF0
aF0.393702
aF0
aF0.63627999999999996
aF0
aF1.01535
aF0
aF1.1989300000000001
aF0
aF3
atp580
a(F50.287817001342773
(lp581
I0
aI0
aF0.10104299999999999
aF0
aF0.319156
aF0
aF4986.3199999999997
aF0
aF0.101549
aF0
aF0.32075599999999999
aF0
aF87.698599999999999
aF0
aF22.613399999999999
aF0
aF18.860399999999998
aF0
aF-614.322
aF0
aF0.393702
aF0
aF0.63480000000000003
aF0
aF1.0138100000000001
aF0
aF1.19737
aF0
aF3
atp582
a(F51.29709792137146
(lp583
I0
aI0
aF0.10113800000000001
aF0
aF0.31876199999999999
aF0
aF4844.8500000000004
aF0
aF0.101631
aF0
aF0.32031399999999999
aF0
aF87.699200000000005
aF0
aF22.613700000000001
aF0
aF18.8626
aF0
aF-614.08500000000004
aF0
aF0.393702
aF0
aF0.63480199999999998
aF0
aF1.01383
aF0
aF1.1973
aF0
aF3
atp584
a(F52.298534870147705
(lp585
I0
aI0
aF0.101483
aF0
aF0.31899
aF0
aF4841.2399999999998
aF0
aF0.101976
aF0
aF0.32054199999999999
aF0
aF87.710599999999999
aF0
aF22.6114
aF0
aF18.950600000000001
aF0
aF-613.64499999999998
aF0
aF0.393702
aF0
aF0.63547900000000002
aF0
aF1.01444
aF0
aF1.1979299999999999
aF0
aF3
atp586
a(F53.30440878868103
(lp587
I0
aI0
aF0.10142
aF0
aF0.31928200000000001
aF0
aF4891.3999999999996
aF0
aF0.101919
aF0
aF0.320851
aF0
aF87.706199999999995
aF0
aF22.612500000000001
aF0
aF18.943200000000001
aF0
aF-613.94600000000003
aF0
aF0.393702
aF0
aF0.63550099999999998
aF0
aF1.01451
aF0
aF1.1983699999999999
aF0
aF3
atp588
a(F54.307215929031372
(lp589
I0
aI0
aF0.101371
aF0
aF0.31919500000000001
aF0
aF5009.8699999999999
aF0
aF0.101881
aF0
aF0.32080199999999998
aF0
aF87.720299999999995
aF0
aF22.6084
aF0
aF19.024799999999999
aF0
aF-613.447
aF0
aF0.393702
aF0
aF0.63631700000000002
aF0
aF1.01529
aF0
aF1.19892
aF0
aF3
atp590
a(F55.310042858123779
(lp591
I0
aI0
aF0.101019
aF0
aF0.31901000000000002
aF0
aF5071.5600000000004
aF0
aF0.101534
aF0
aF0.32063599999999998
aF0
aF87.709800000000001
aF0
aF22.6128
aF0
aF18.947500000000002
aF0
aF-613.47699999999998
aF0
aF0.393702
aF0
aF0.63552399999999998
aF0
aF1.0143899999999999
aF0
aF1.1982200000000001
aF0
aF3
atp592
a(F56.314849853515625
(lp593
I0
aI0
aF0.10097100000000001
aF0
aF0.31969700000000001
aF0
aF4990.5100000000002
aF0
aF0.101478
aF0
aF0.321301
aF0
aF87.7209
aF0
aF22.608899999999998
aF0
aF19.018799999999999
aF0
aF-613.82799999999997
aF0
aF0.393702
aF0
aF0.63631000000000004
aF0
aF1.0152399999999999
aF0
aF1.19916
aF0
aF3
atp594
a(F57.324625968933105
(lp595
I0
aI0
aF0.10154000000000001
aF0
aF0.319357
aF0
aF5027.8800000000001
aF0
aF0.102053
aF0
aF0.32096999999999998
aF0
aF87.699200000000005
aF0
aF22.616299999999999
aF0
aF18.856000000000002
aF0
aF-614.46100000000001
aF0
aF0.39375399999999999
aF0
aF0.63476900000000003
aF0
aF1.01353
aF0
aF1.19764
aF0
aF3
atp596
a(F58.333668947219849
(lp597
I0
aI0
aF0.101384
aF0
aF0.31988499999999997
aF0
aF5040.21
aF0
aF0.101898
aF0
aF0.32150499999999999
aF0
aF87.708799999999997
aF0
aF22.613800000000001
aF0
aF18.938300000000002
aF0
aF-614.39800000000002
aF0
aF0.39375399999999999
aF0
aF0.63545600000000002
aF0
aF1.01437
aF0
aF1.1981299999999999
aF0
aF3
atp598
a(F59.345385789871216
(lp599
I0
aI0
aF0.101438
aF0
aF0.31971699999999997
aF0
aF5234.0600000000004
aF0
aF0.10197199999999999
aF0
aF0.32139899999999999
aF0
aF87.721000000000004
aF0
aF22.610399999999998
aF0
aF19.009599999999999
aF0
aF-614.09000000000003
aF0
aF0.39375399999999999
aF0
aF0.63624700000000001
aF0
aF1.01522
aF0
aF1.1988099999999999
aF0
aF3
atp600
a(F60.357261896133423
(lp601
I0
aI0
aF0.101271
aF0
aF0.31915700000000002
aF0
aF4829.3599999999997
aF0
aF0.10176200000000001
aF0
aF0.32070599999999999
aF0
aF87.708799999999997
aF0
aF22.615300000000001
aF0
aF18.938800000000001
aF0
aF-614.28599999999994
aF0
aF0.39375399999999999
aF0
aF0.63549199999999995
aF0
aF1.0144599999999999
aF0
aF1.19814
aF0
aF3
atp602
a(F61.359031915664673
(lp603
I0
aI0
aF0.10130400000000001
aF0
aF0.31992799999999999
aF0
aF5080.0100000000002
aF0
aF0.10182099999999999
aF0
aF0.32156099999999999
aF0
aF87.721299999999999
aF0
aF22.6111
aF0
aF19.015000000000001
aF0
aF-613.89700000000005
aF0
aF0.39375399999999999
aF0
aF0.63636099999999995
aF0
aF1.01529
aF0
aF1.19903
aF0
aF3
atp604
a(F62.363844871520996
(lp605
I0
aI0
aF0.101229
aF0
aF0.31912600000000002
aF0
aF4986.5100000000002
aF0
aF0.10173599999999999
aF0
aF0.32072499999999998
aF0
aF87.705399999999997
aF0
aF22.616700000000002
aF0
aF18.928599999999999
aF0
aF-614.35199999999998
aF0
aF0.39375399999999999
aF0
aF0.63557600000000003
aF0
aF1.01437
aF0
aF1.19804
aF0
aF3
atp606
a(F63.376678943634033
(lp607
I0
aI0
aF0.101262
aF0
aF0.31941599999999998
aF0
aF5011.6099999999997
aF0
aF0.101772
aF0
aF0.321025
aF0
aF87.721699999999998
aF0
aF22.611899999999999
aF0
aF19.008099999999999
aF0
aF-614.11599999999999
aF0
aF0.39375399999999999
aF0
aF0.63646199999999997
aF0
aF1.0152600000000001
aF0
aF1.1988000000000001
aF0
aF3
atp608
a(F64.38255500793457
(lp609
I0
aI0
aF0.100949
aF0
aF0.318801
aF0
aF4922.3500000000004
aF0
aF0.101448
aF0
aF0.320378
aF0
aF87.721800000000002
aF0
aF22.612100000000002
aF0
aF19.006699999999999
aF0
aF-613.88900000000001
aF0
aF0.39375399999999999
aF0
aF0.63631700000000002
aF0
aF1.0152600000000001
aF0
aF1.1987300000000001
aF0
aF3
atp610
a(F65.389416933059692
(lp611
I0
aI0
aF0.10098500000000001
aF0
aF0.31904700000000003
aF0
aF4916.2799999999997
aF0
aF0.101484
aF0
aF0.32062299999999999
aF0
aF87.723799999999997
aF0
aF22.613
aF0
aF19.0151
aF0
aF-614.36699999999996
aF0
aF0.39375399999999999
aF0
aF0.63627
aF0
aF1.01535
aF0
aF1.19889
aF0
aF3
atp612
a(F66.397722959518433
(lp613
I0
aI0
aF0.100947
aF0
aF0.31900299999999998
aF0
aF5057.6599999999999
aF0
aF0.10145999999999999
aF0
aF0.32062499999999999
aF0
aF87.723399999999998
aF0
aF22.613099999999999
aF0
aF18.994199999999999
aF0
aF-614.39599999999996
aF0
aF0.39375399999999999
aF0
aF0.63628700000000005
aF0
aF1.0153099999999999
aF0
aF1.19895
aF0
aF3
atp614
a(F67.39997386932373
(lp615
I0
aI0
aF0.101531
aF0
aF0.31857000000000002
aF0
aF4989.5699999999997
aF0
aF0.10204000000000001
aF0
aF0.32016699999999998
aF0
aF87.702200000000005
aF0
aF22.621400000000001
aF0
aF18.833300000000001
aF0
aF-614.71199999999999
aF0
aF0.39375399999999999
aF0
aF0.63487499999999997
aF0
aF1.01373
aF0
aF1.19712
aF0
aF3
atp616
a(F68.407853841781616
(lp617
I0
aI0
aF0.101054
aF0
aF0.31930799999999998
aF0
aF5086.3400000000001
aF0
aF0.10156999999999999
aF0
aF0.32094
aF0
aF87.701999999999998
aF0
aF22.621600000000001
aF0
aF18.834199999999999
aF0
aF-614.52800000000002
aF0
aF0.39375399999999999
aF0
aF0.63475400000000004
aF0
aF1.0137
aF0
aF1.1974499999999999
aF0
aF3
atp618
a(F69.412661790847778
(lp619
I0
aI0
aF0.101157
aF0
aF0.31912200000000002
aF0
aF4999.1000000000004
aF0
aF0.10166500000000001
aF0
aF0.32072499999999998
aF0
aF87.720200000000006
aF0
aF22.6145
aF0
aF18.9862
aF0
aF-614.40999999999997
aF0
aF0.39375399999999999
aF0
aF0.63635600000000003
aF0
aF1.0154000000000001
aF0
aF1.1989399999999999
aF0
aF3
atp620
a(F70.417022943496704
(lp621
I0
aI0
aF0.101381
aF0
aF0.31918800000000003
aF0
aF4849.75
aF0
aF0.10187499999999999
aF0
aF0.320743
aF0
aF87.709800000000001
aF0
aF22.620100000000001
aF0
aF18.915500000000002
aF0
aF-614.36500000000001
aF0
aF0.39375399999999999
aF0
aF0.63570599999999999
aF0
aF1.01447
aF0
aF1.19815
aF0
aF3
atp622
a(F71.422460794448853
(lp623
I0
aI0
aF0.10069
aF0
aF0.31904900000000003
aF0
aF4819.29
aF0
aF0.101178
aF0
aF0.32059399999999999
aF0
aF87.702799999999996
aF0
aF22.622599999999998
aF0
aF18.834499999999998
aF0
aF-614.82100000000003
aF0
aF0.39375399999999999
aF0
aF0.63478500000000004
aF0
aF1.0136499999999999
aF0
aF1.1972799999999999
aF0
aF3
atp624
a(F72.425184965133667
(lp625
I0
aI0
aF0.101273
aF0
aF0.31952700000000001
aF0
aF4830
aF0
aF0.10176399999999999
aF0
aF0.32107799999999997
aF0
aF87.708799999999997
aF0
aF22.621400000000001
aF0
aF18.9054
aF0
aF-614.50599999999997
aF0
aF0.39375399999999999
aF0
aF0.63558400000000004
aF0
aF1.0144500000000001
aF0
aF1.19808
aF0
aF3
atp626
a(F73.431006908416748
(lp627
I0
aI0
aF0.10162
aF0
aF0.31913200000000003
aF0
aF5098.7700000000004
aF0
aF0.102141
aF0
aF0.32076700000000002
aF0
aF87.709599999999995
aF0
aF22.621099999999998
aF0
aF18.896100000000001
aF0
aF-614.83900000000006
aF0
aF0.39379700000000001
aF0
aF0.63547500000000001
aF0
aF1.01447
aF0
aF1.1981200000000001
aF0
aF3
atp628
a(F74.43390679359436
(lp629
I0
aI0
aF0.100929
aF0
aF0.32018200000000002
aF0
aF5076.96
aF0
aF0.10144400000000001
aF0
aF0.32181599999999999
aF0
aF87.719300000000004
aF0
aF22.617000000000001
aF0
aF18.9893
aF0
aF-614.50699999999995
aF0
aF0.39379700000000001
aF0
aF0.63635699999999995
aF0
aF1.01532
aF0
aF1.1989300000000001
aF0
aF3
atp630
a(F75.437711000442505
(lp631
I0
aI0
aF0.10122299999999999
aF0
aF0.319664
aF0
aF4987.2799999999997
aF0
aF0.10173
aF0
aF0.321266
aF0
aF87.707999999999998
aF0
aF22.6221
aF0
aF18.8965
aF0
aF-614.58900000000006
aF0
aF0.39384000000000002
aF0
aF0.63547600000000004
aF0
aF1.0144899999999999
aF0
aF1.1980900000000001
aF0
aF3
atp632
a(F76.440534830093384
(lp633
I0
aI0
aF0.101395
aF0
aF0.32026900000000003
aF0
aF4876.7399999999998
aF0
aF0.101892
aF0
aF0.32183800000000001
aF0
aF87.7196
aF0
aF22.617599999999999
aF0
aF18.9879
aF0
aF-614.51700000000005
aF0
aF0.39384000000000002
aF0
aF0.63630600000000004
aF0
aF1.0153099999999999
aF0
aF1.19906
aF0
aF3
atp634
a(F77.448357820510864
(lp635
I0
aI0
aF0.101219
aF0
aF0.31920900000000002
aF0
aF5093.5299999999997
aF0
aF0.10173699999999999
aF0
aF0.32084400000000002
aF0
aF87.717200000000005
aF0
aF22.619
aF0
aF18.985700000000001
aF0
aF-614.93399999999997
aF0
aF0.39384000000000002
aF0
aF0.63628399999999996
aF0
aF1.01528
aF0
aF1.1989700000000001
aF0
aF3
atp636
a(F78.456188917160034
(lp637
I0
aI0
aF0.101077
aF0
aF0.32006600000000002
aF0
aF4948.3400000000001
aF0
aF0.10158
aF0
aF0.321658
aF0
aF87.720600000000005
aF0
aF22.617999999999999
aF0
aF18.984100000000002
aF0
aF-614.97400000000005
aF0
aF0.39384000000000002
aF0
aF0.63640200000000002
aF0
aF1.01525
aF0
aF1.1990099999999999
aF0
aF3
atp638
a(F79.463097810745239
(lp639
I0
aI0
aF0.100836
aF0
aF0.32007000000000002
aF0
aF4934.2200000000003
aF0
aF0.101336
aF0
aF0.32165700000000003
aF0
aF87.720500000000001
aF0
aF22.619399999999999
aF0
aF18.982900000000001
aF0
aF-615.02499999999998
aF0
aF0.39384000000000002
aF0
aF0.63624800000000004
aF0
aF1.01528
aF0
aF1.1987699999999999
aF0
aF3
atp640
a(F80.471030950546265
(lp641
I0
aI0
aF0.100688
aF0
aF0.31897599999999998
aF0
aF4846.5699999999997
aF0
aF0.101178
aF0
aF0.32052900000000001
aF0
aF87.719700000000003
aF0
aF22.619299999999999
aF0
aF18.987300000000001
aF0
aF-614.85799999999995
aF0
aF0.39384000000000002
aF0
aF0.63627299999999998
aF0
aF1.0152600000000001
aF0
aF1.1990400000000001
aF0
aF3
atp642
a(F81.478718996047974
(lp643
I0
aI0
aF0.101294
aF0
aF0.31961800000000001
aF0
aF5059.0799999999999
aF0
aF0.101809
aF0
aF0.32124399999999997
aF0
aF87.721500000000006
aF0
aF22.620699999999999
aF0
aF18.974299999999999
aF0
aF-614.90200000000004
aF0
aF0.39384000000000002
aF0
aF0.63626300000000002
aF0
aF1.0152600000000001
aF0
aF1.1987300000000001
aF0
aF3
atp644
a(F82.487546920776367
(lp645
I0
aI0
aF0.10113
aF0
aF0.31957000000000002
aF0
aF4868.7200000000003
aF0
aF0.10162499999999999
aF0
aF0.32113399999999998
aF0
aF87.717699999999994
aF0
aF22.620699999999999
aF0
aF18.9453
aF0
aF-614.88699999999994
aF0
aF0.39384000000000002
aF0
aF0.635988
aF0
aF1.01498
aF0
aF1.19879
aF0
aF3
atp646
a(F83.492266893386841
(lp647
I0
aI0
aF0.100977
aF0
aF0.319824
aF0
aF4773.29
aF0
aF0.101461
aF0
aF0.32135799999999998
aF0
aF87.707599999999999
aF0
aF22.626300000000001
aF0
aF18.874600000000001
aF0
aF-615.12900000000002
aF0
aF0.39384000000000002
aF0
aF0.63528200000000001
aF0
aF1.0142800000000001
aF0
aF1.19801
aF0
aF3
atp648
a(F84.497190952301025
(lp649
I0
aI0
aF0.100786
aF0
aF0.32007600000000003
aF0
aF4907.9399999999996
aF0
aF0.101283
aF0
aF0.321654
aF0
aF87.7179
aF0
aF22.622
aF0
aF18.9695
aF0
aF-614.92200000000003
aF0
aF0.39384000000000002
aF0
aF0.63625699999999996
aF0
aF1.0152699999999999
aF0
aF1.1987099999999999
aF0
aF3
atp650
a(F85.499997854232788
(lp651
I0
aI0
aF0.100994
aF0
aF0.32014100000000001
aF0
aF4718.6599999999999
aF0
aF0.10147299999999999
aF0
aF0.32165899999999997
aF0
aF87.698400000000007
aF0
aF22.629100000000001
aF0
aF18.799299999999999
aF0
aF-615.21400000000006
aF0
aF0.39384000000000002
aF0
aF0.63463099999999995
aF0
aF1.01355
aF0
aF1.1972400000000001
aF0
aF3
atp652
a(F86.502954006195068
(lp653
I0
aI0
aF0.101271
aF0
aF0.32006499999999999
aF0
aF5097.8299999999999
aF0
aF0.10179000000000001
aF0
aF0.32170500000000002
aF0
aF87.7059
aF0
aF22.627800000000001
aF0
aF18.882400000000001
aF0
aF-615.024
aF0
aF0.39384000000000002
aF0
aF0.63551199999999997
aF0
aF1.0143899999999999
aF0
aF1.19801
aF0
aF3
atp654
a(F87.508605003356934
(lp655
I0
aI0
aF0.10101300000000001
aF0
aF0.31974799999999998
aF0
aF4762.8699999999999
aF0
aF0.101497
aF0
aF0.32127800000000001
aF0
aF87.706100000000006
aF0
aF22.627800000000001
aF0
aF18.8779
aF0
aF-615.15300000000002
aF0
aF0.39384000000000002
aF0
aF0.63539800000000002
aF0
aF1.0143899999999999
aF0
aF1.1979500000000001
aF0
aF3
atp656
a(F88.511571884155273
(lp657
I0
aI0
aF0.10104
aF0
aF0.31985000000000002
aF0
aF4865.1300000000001
aF0
aF0.101534
aF0
aF0.32141399999999998
aF0
aF87.719999999999999
aF0
aF22.623200000000001
aF0
aF18.9695
aF0
aF-614.89300000000003
aF0
aF0.39384000000000002
aF0
aF0.63624800000000004
aF0
aF1.0153000000000001
aF0
aF1.1989700000000001
aF0
aF3
atp658
a(F89.521420001983643
(lp659
I0
aI0
aF0.101101
aF0
aF0.32027899999999998
aF0
aF4817.3800000000001
aF0
aF0.101591
aF0
aF0.32182899999999998
aF0
aF87.697699999999998
aF0
aF22.630800000000001
aF0
aF18.796199999999999
aF0
aF-615.02099999999996
aF0
aF0.39384000000000002
aF0
aF0.63462099999999999
aF0
aF1.0135700000000001
aF0
aF1.19712
aF0
aF3
atp660
a(F90.525218963623047
(lp661
I0
aI0
aF0.100895
aF0
aF0.32015399999999999
aF0
aF4891.21
aF0
aF0.101391
aF0
aF0.32172699999999999
aF0
aF87.698700000000002
aF0
aF22.630700000000001
aF0
aF18.788
aF0
aF-615.05700000000002
aF0
aF0.39384000000000002
aF0
aF0.634633
aF0
aF1.01359
aF0
aF1.1974
aF0
aF3
atp662
a(F91.528010845184326
(lp663
I0
aI0
aF0.10068199999999999
aF0
aF0.32034000000000001
aF0
aF5041.9099999999999
aF0
aF0.101192
aF0
aF0.321963
aF0
aF87.706800000000001
aF0
aF22.628699999999998
aF0
aF18.889700000000001
aF0
aF-614.96000000000004
aF0
aF0.39384000000000002
aF0
aF0.63542500000000002
aF0
aF1.0145
aF0
aF1.1980500000000001
aF0
aF3
atp664
a(F92.531089782714844
(lp665
I0
aI0
aF0.100813
aF0
aF0.31934800000000002
aF0
aF4764
aF0
aF0.101296
aF0
aF0.32087599999999999
aF0
aF87.718299999999999
aF0
aF22.625699999999998
aF0
aF18.956399999999999
aF0
aF-614.85299999999995
aF0
aF0.39384000000000002
aF0
aF0.63621799999999995
aF0
aF1.01529
aF0
aF1.1989000000000001
aF0
aF3
atp666
a(F93.534819841384888
(lp667
I0
aI0
aF0.10098799999999999
aF0
aF0.320162
aF0
aF4951.75
aF0
aF0.10149
aF0
aF0.32175599999999999
aF0
aF87.705399999999997
aF0
aF22.629999999999999
aF0
aF18.8782
aF0
aF-615.22199999999998
aF0
aF0.39384000000000002
aF0
aF0.63541599999999998
aF0
aF1.0144500000000001
aF0
aF1.19814
aF0
aF3
atp668
a(F94.53748893737793
(lp669
I0
aI0
aF0.10082099999999999
aF0
aF0.31994099999999998
aF0
aF5180.8000000000002
aF0
aF0.10134600000000001
aF0
aF0.321608
aF0
aF87.719800000000006
aF0
aF22.625699999999998
aF0
aF18.940999999999999
aF0
aF-615.22699999999998
aF0
aF0.39384000000000002
aF0
aF0.63621000000000005
aF0
aF1.0154300000000001
aF0
aF1.19899
aF0
aF3
atp670
a(F95.543453931808472
(lp671
I0
aI0
aF0.100925
aF0
aF0.32006400000000002
aF0
aF5063.0900000000001
aF0
aF0.101439
aF0
aF0.32169300000000001
aF0
aF87.720299999999995
aF0
aF22.625800000000002
aF0
aF18.9145
aF0
aF-615.09699999999998
aF0
aF0.393787
aF0
aF0.63634999999999997
aF0
aF1.0152600000000001
aF0
aF1.1986300000000001
aF0
aF3
atp672
a(F96.547574996948242
(lp673
I0
aI0
aF0.10087
aF0
aF0.31969199999999998
aF0
aF4992.9200000000001
aF0
aF0.10137599999999999
aF0
aF0.32129600000000003
aF0
aF87.7012
aF0
aF22.633700000000001
aF0
aF18.747299999999999
aF0
aF-615.18299999999999
aF0
aF0.393787
aF0
aF0.63469799999999998
aF0
aF1.01372
aF0
aF1.19737
aF0
aF3
atp674
a(F97.551059007644653
(lp675
I0
aI0
aF0.101267
aF0
aF0.32013799999999998
aF0
aF5140.5600000000004
aF0
aF0.10179000000000001
aF0
aF0.32179200000000002
aF0
aF87.721000000000004
aF0
aF22.626799999999999
aF0
aF18.894100000000002
aF0
aF-615.30100000000004
aF0
aF0.393787
aF0
aF0.63634299999999999
aF0
aF1.0152099999999999
aF0
aF1.1988300000000001
aF0
aF3
atp676
a(F98.555846929550171
(lp677
I0
aI0
aF0.10073
aF0
aF0.31984499999999999
aF0
aF4981.8199999999997
aF0
aF0.101234
aF0
aF0.32144600000000001
aF0
aF87.7102
aF0
aF22.632100000000001
aF0
aF18.8034
aF0
aF-616.05899999999997
aF0
aF0.393787
aF0
aF0.63561400000000001
aF0
aF1.0144899999999999
aF0
aF1.1982999999999999
aF0
aF3
atp678
a(F99.563855886459351
(lp679
I0
aI0
aF0.101198
aF0
aF0.31976100000000002
aF0
aF5026.79
aF0
aF0.10170899999999999
aF0
aF0.32137700000000002
aF0
aF87.708600000000004
aF0
aF22.632100000000001
aF0
aF18.776900000000001
aF0
aF-616.46100000000001
aF0
aF0.393787
aF0
aF0.63562099999999999
aF0
aF1.0144299999999999
aF0
aF1.1981599999999999
aF0
aF3
atp680
a(F100.57360291481018
(lp681
I0
aI0
aF0.10052700000000001
aF0
aF0.31980199999999998
aF0
aF5036.6899999999996
aF0
aF0.101036
aF0
aF0.32142100000000001
aF0
aF87.718800000000002
aF0
aF22.627600000000001
aF0
aF18.8505
aF0
aF-616.21699999999998
aF0
aF0.393787
aF0
aF0.63650399999999996
aF0
aF1.0154099999999999
aF0
aF1.19896
aF0
aF3
atp682
a(F101.57943391799927
(lp683
I0
aI0
aF0.10047300000000001
aF0
aF0.319828
aF0
aF5102.9300000000003
aF0
aF0.10098799999999999
aF0
aF0.32146799999999998
aF0
aF87.709800000000001
aF0
aF22.6325
aF0
aF18.741599999999998
aF0
aF-616.50599999999997
aF0
aF0.393787
aF0
aF0.63573800000000003
aF0
aF1.01451
aF0
aF1.1980999999999999
aF0
aF3
atp684
a(F102.59219598770142
(lp685
I0
aI0
aF0.100636
aF0
aF0.31946600000000003
aF0
aF4914.3500000000004
aF0
aF0.101133
aF0
aF0.321044
aF0
aF87.700299999999999
aF0
aF22.635999999999999
aF0
aF18.628900000000002
aF0
aF-616.73099999999999
aF0
aF0.393787
aF0
aF0.63489499999999999
aF0
aF1.0135400000000001
aF0
aF1.1972400000000001
aF0
aF3
atp686
a(F103.60382390022278
(lp687
I0
aI0
aF0.100726
aF0
aF0.31925900000000001
aF0
aF5257.3599999999997
aF0
aF0.101259
aF0
aF0.32094699999999998
aF0
aF87.706800000000001
aF0
aF22.634599999999999
aF0
aF18.700199999999999
aF0
aF-616.88699999999994
aF0
aF0.393787
aF0
aF0.63560300000000003
aF0
aF1.01441
aF0
aF1.19814
aF0
aF3
atp688
a(F104.61600995063782
(lp689
I0
aI0
aF0.10036399999999999
aF0
aF0.31997999999999999
aF0
aF5174.0500000000002
aF0
aF0.100886
aF0
aF0.32164399999999999
aF0
aF87.7012
aF0
aF22.637
aF0
aF18.594100000000001
aF0
aF-617.30499999999995
aF0
aF0.393787
aF0
aF0.63492099999999996
aF0
aF1.0135700000000001
aF0
aF1.1971799999999999
aF0
aF3
atp690
a(F105.6267728805542
(lp691
I0
aI0
aF0.100327
aF0
aF0.31991000000000003
aF0
aF5088.4899999999998
aF0
aF0.10084
aF0
aF0.32154700000000003
aF0
aF87.710400000000007
aF0
aF22.634899999999998
aF0
aF18.663399999999999
aF0
aF-615.54100000000005
aF0
aF0.393787
aF0
aF0.63566800000000001
aF0
aF1.0144500000000001
aF0
aF1.1979
aF0
aF3
atp692
a(F106.63568782806396
(lp693
I0
aI0
aF0.100466
aF0
aF0.31959599999999999
aF0
aF5265.0699999999997
aF0
aF0.100998
aF0
aF0.32128699999999999
aF0
aF87.724699999999999
aF0
aF22.630400000000002
aF0
aF18.717700000000001
aF0
aF-614.90700000000004
aF0
aF0.393787
aF0
aF0.63664799999999999
aF0
aF1.0153099999999999
aF0
aF1.19876
aF0
aF3
atp694
a(F107.64546394348145
(lp695
I0
aI0
aF0.100594
aF0
aF0.31935999999999998
aF0
aF5052.0200000000004
aF0
aF0.101105
aF0
aF0.32098199999999999
aF0
aF87.723500000000001
aF0
aF22.631399999999999
aF0
aF18.681000000000001
aF0
aF-614.86699999999996
aF0
aF0.393787
aF0
aF0.63631099999999996
aF0
aF1.01512
aF0
aF1.1986300000000001
aF0
aF3
atp696
a(F108.65438389778137
(lp697
I0
aI0
aF0.100506
aF0
aF0.31977899999999998
aF0
aF5285.3299999999999
aF0
aF0.10104
aF0
aF0.32147799999999999
aF0
aF87.704300000000003
aF0
aF22.6386
aF0
aF18.5108
aF0
aF-614.995
aF0
aF0.393787
aF0
aF0.63506600000000002
aF0
aF1.0135700000000001
aF0
aF1.19703
aF0
aF3
atp698
a(F109.66115784645081
(lp699
I0
aI0
aF0.10081900000000001
aF0
aF0.32009199999999999
aF0
aF5624.1999999999998
aF0
aF0.10138999999999999
aF0
aF0.32190200000000002
aF0
aF87.723799999999997
aF0
aF22.631900000000002
aF0
aF18.652699999999999
aF0
aF-614.94000000000005
aF0
aF0.393787
aF0
aF0.63661100000000004
aF0
aF1.0152300000000001
aF0
aF1.1989000000000001
aF0
aF3
atp700
a(F110.67296886444092
(lp701
I0
aI0
aF0.100645
aF0
aF0.319996
aF0
aF5372.0699999999997
aF0
aF0.101188
aF0
aF0.32172400000000001
aF0
aF87.712199999999996
aF0
aF22.637499999999999
aF0
aF18.546600000000002
aF0
aF-615.38
aF0
aF0.393787
aF0
aF0.63590199999999997
aF0
aF1.0143800000000001
aF0
aF1.1980500000000001
aF0
aF3
atp702
a(F111.68364691734314
(lp703
I0
aI0
aF0.101023
aF0
aF0.31922800000000001
aF0
aF5198.2299999999996
aF0
aF0.10155
aF0
aF0.32089600000000001
aF0
aF87.724400000000003
aF0
aF22.633099999999999
aF0
aF18.591100000000001
aF0
aF-615.08000000000004
aF0
aF0.393787
aF0
aF0.63658599999999999
aF0
aF1.0152300000000001
aF0
aF1.19903
aF0
aF3
atp704
a(F112.69689297676086
(lp705
I0
aI0
aF0.100618
aF0
aF0.32011000000000001
aF0
aF5381.3999999999996
aF0
aF0.101162
aF0
aF0.32184200000000002
aF0
aF87.7102
aF0
aF22.638500000000001
aF0
aF18.493200000000002
aF0
aF-615.21900000000005
aF0
aF0.393787
aF0
aF0.63582300000000003
aF0
aF1.0143599999999999
aF0
aF1.19811
aF0
aF3
atp706
a(F113.69946479797363
(lp707
I0
aI0
aF0.100184
aF0
aF0.32023800000000002
aF0
aF5244.1800000000003
aF0
aF0.100713
aF0
aF0.32192700000000002
aF0
aF87.722700000000003
aF0
aF22.634
aF0
aF18.558199999999999
aF0
aF-615.47299999999996
aF0
aF0.393787
aF0
aF0.63672700000000004
aF0
aF1.01518
aF0
aF1.19889
aF0
aF3
atp708
a(F114.70632195472717
(lp709
I0
aI0
aF0.10049
aF0
aF0.31990499999999999
aF0
aF5401.9099999999999
aF0
aF0.101036
aF0
aF0.32164300000000001
aF0
aF87.722499999999997
aF0
aF22.634799999999998
aF0
aF18.5398
aF0
aF-615.64800000000002
aF0
aF0.393787
aF0
aF0.636799
aF0
aF1.0151300000000001
aF0
aF1.1989799999999999
aF0
aF3
atp710
a(F115.70919799804688
(lp711
I0
aI0
aF0.10029100000000001
aF0
aF0.3201
aF0
aF5311.8400000000001
aF0
aF0.100827
aF0
aF0.32180999999999998
aF0
aF87.711600000000004
aF0
aF22.639500000000002
aF0
aF18.428899999999999
aF0
aF-615.68600000000004
aF0
aF0.393847
aF0
aF0.63589099999999998
aF0
aF1.0142800000000001
aF0
aF1.1979599999999999
aF0
aF3
atp712
a(F116.71202182769775
(lp713
I0
aI0
aF0.10018299999999999
aF0
aF0.31899300000000003
aF0
aF5481.96
aF0
aF0.10073600000000001
aF0
aF0.32075100000000001
aF0
aF87.725200000000001
aF0
aF22.635100000000001
aF0
aF18.488800000000001
aF0
aF-615.89499999999998
aF0
aF0.393847
aF0
aF0.63655600000000001
aF0
aF1.01528
aF0
aF1.19895
aF0
aF3
atp714
a(F117.72477197647095
(lp715
I0
aI0
aF0.10038
aF0
aF0.31983699999999998
aF0
aF5409.8400000000001
aF0
aF0.100926
aF0
aF0.32157599999999997
aF0
aF87.710300000000004
aF0
aF22.6404
aF0
aF18.3904
aF0
aF-616.42499999999995
aF0
aF0.393847
aF0
aF0.63597199999999998
aF0
aF1.0144299999999999
aF0
aF1.1981599999999999
aF0
aF3
atp716
a(F118.73565793037415
(lp717
I0
aI0
aF0.100605
aF0
aF0.31993899999999997
aF0
aF5551.29
aF0
aF0.10116600000000001
aF0
aF0.32172499999999998
aF0
aF87.721199999999996
aF0
aF22.635899999999999
aF0
aF18.439
aF0
aF-616.40999999999997
aF0
aF0.393847
aF0
aF0.636598
aF0
aF1.0152399999999999
aF0
aF1.1989300000000001
aF0
aF3
atp718
a(F119.74447393417358
(lp719
I0
aI0
aF0.10026
aF0
aF0.31976700000000002
aF0
aF5480.3699999999999
aF0
aF0.100812
aF0
aF0.32152900000000001
aF0
aF87.719700000000003
aF0
aF22.635899999999999
aF0
aF18.431799999999999
aF0
aF-616.45699999999999
aF0
aF0.393847
aF0
aF0.63656100000000004
aF0
aF1.0153799999999999
aF0
aF1.19889
aF0
aF3
atp720
a(F120.75338101387024
(lp721
I0
aI0
aF0.10038999999999999
aF0
aF0.31980799999999998
aF0
aF5359.5699999999997
aF0
aF0.10093100000000001
aF0
aF0.32153100000000001
aF0
aF87.700999999999993
aF0
aF22.6434
aF0
aF18.244599999999998
aF0
aF-617.12099999999998
aF0
aF0.393847
aF0
aF0.63509899999999997
aF0
aF1.0136799999999999
aF0
aF1.1974
aF0
aF3
atp722
a(F121.7611939907074
(lp723
I0
aI0
aF0.100289
aF0
aF0.31975999999999999
aF0
aF5367.3999999999996
aF0
aF0.10083
aF0
aF0.32148599999999999
aF0
aF87.698300000000003
aF0
aF22.643699999999999
aF0
aF18.206600000000002
aF0
aF-615.55600000000004
aF0
aF0.393847
aF0
aF0.63523499999999999
aF0
aF1.01366
aF0
aF1.1975100000000001
aF0
aF3
atp724
a(F122.77499079704285
(lp725
I0
aI0
aF0.100798
aF0
aF0.31906099999999998
aF0
aF5308.79
aF0
aF0.101336
aF0
aF0.32076399999999999
aF0
aF87.719499999999996
aF0
aF22.638000000000002
aF0
aF18.348800000000001
aF0
aF-615.14300000000003
aF0
aF0.393847
aF0
aF0.63652500000000001
aF0
aF1.01519
aF0
aF1.19885
aF0
aF3
atp726
a(F123.78183698654175
(lp727
I0
aI0
aF0.10044699999999999
aF0
aF0.31992399999999999
aF0
aF5294.1199999999999
aF0
aF0.100982
aF0
aF0.32162600000000002
aF0
aF87.721000000000004
aF0
aF22.637799999999999
aF0
aF18.346800000000002
aF0
aF-615.24400000000003
aF0
aF0.393847
aF0
aF0.63644699999999998
aF0
aF1.0152699999999999
aF0
aF1.1989399999999999
aF0
aF3
atp728
a(F124.79265880584717
(lp729
I0
aI0
aF0.10000199999999999
aF0
aF0.31900299999999998
aF0
aF5310.4700000000003
aF0
aF0.100536
aF0
aF0.32070700000000002
aF0
aF87.701499999999996
aF0
aF22.645199999999999
aF0
aF18.1465
aF0
aF-615.76800000000003
aF0
aF0.393847
aF0
aF0.63481900000000002
aF0
aF1.01363
aF0
aF1.19746
aF0
aF3
atp730
a(F125.79959583282471
(lp731
I0
aI0
aF0.100712
aF0
aF0.32009799999999999
aF0
aF5169.8699999999999
aF0
aF0.10123600000000001
aF0
aF0.32176100000000002
aF0
aF87.703199999999995
aF0
aF22.645700000000001
aF0
aF18.129300000000001
aF0
aF-615.93799999999999
aF0
aF0.393847
aF0
aF0.63512400000000002
aF0
aF1.0136499999999999
aF0
aF1.19729
aF0
aF3
atp732
a(F126.8154308795929
(lp733
I0
aI0
aF0.100576
aF0
aF0.32039000000000001
aF0
aF5199.5299999999997
aF0
aF0.101101
aF0
aF0.32206499999999999
aF0
aF87.703000000000003
aF0
aF22.646699999999999
aF0
aF18.1081
aF0
aF-615.928
aF0
aF0.393847
aF0
aF0.63501399999999997
aF0
aF1.01363
aF0
aF1.19719
aF0
aF3
atp734
a(F127.81814384460449
(lp735
I0
aI0
aF0.10019500000000001
aF0
aF0.319855
aF0
aF5241.8599999999997
aF0
aF0.10072299999999999
aF0
aF0.32154100000000002
aF0
aF87.715199999999996
aF0
aF22.6447
aF0
aF18.1676
aF0
aF-615.80700000000002
aF0
aF0.393847
aF0
aF0.63588599999999995
aF0
aF1.0144
aF0
aF1.1981599999999999
aF0
aF3
atp736
a(F128.82900786399841
(lp737
I0
aI0
aF0.100151
aF0
aF0.31931500000000002
aF0
aF5643.3699999999999
aF0
aF0.100719
aF0
aF0.32112800000000002
aF0
aF87.726699999999994
aF0
aF22.6401
aF0
aF18.224499999999999
aF0
aF-616.34400000000005
aF0
aF0.393847
aF0
aF0.636818
aF0
aF1.01529
aF0
aF1.19895
aF0
aF3
atp738
a(F129.84528994560242
(lp739
I0
aI0
aF0.100176
aF0
aF0.32001400000000002
aF0
aF5491.5100000000002
aF0
aF0.100729
aF0
aF0.32178099999999998
aF0
aF87.723799999999997
aF0
aF22.6403
aF0
aF18.2042
aF0
aF-616.30200000000002
aF0
aF0.393847
aF0
aF0.63676200000000005
aF0
aF1.0151699999999999
aF0
aF1.1990700000000001
aF0
aF3
atp740
a(F130.85468482971191
(lp741
I0
aI0
aF0.100287
aF0
aF0.31906699999999999
aF0
aF5192.1000000000004
aF0
aF0.100811
aF0
aF0.32073200000000002
aF0
aF87.703800000000001
aF0
aF22.648
aF0
aF18.0136
aF0
aF-616.63300000000004
aF0
aF0.393847
aF0
aF0.63516600000000001
aF0
aF1.01353
aF0
aF1.19719
aF0
aF3
atp742
a(F131.86351680755615
(lp743
I0
aI0
aF0.100203
aF0
aF0.32043500000000003
aF0
aF5475
aF0
aF0.100755
aF0
aF0.32219900000000001
aF0
aF87.709400000000002
aF0
aF22.645900000000001
aF0
aF18.078700000000001
aF0
aF-616.80100000000004
aF0
aF0.393847
aF0
aF0.63592899999999997
aF0
aF1.0142599999999999
aF0
aF1.198
aF0
aF3
atp744
a(F132.87638878822327
(lp745
I0
aI0
aF0.10014199999999999
aF0
aF0.32028600000000002
aF0
aF5625.2200000000003
aF0
aF0.10070800000000001
aF0
aF0.322098
aF0
aF87.718800000000002
aF0
aF22.6417
aF0
aF18.127199999999998
aF0
aF-616.47000000000003
aF0
aF0.393847
aF0
aF0.63675899999999996
aF0
aF1.0151399999999999
aF0
aF1.1988300000000001
aF0
aF3
atp746
a(F133.88419795036316
(lp747
I0
aI0
aF0.100623
aF0
aF0.3196
aF0
aF5669.0200000000004
aF0
aF0.101197
aF0
aF0.32142199999999999
aF0
aF87.699700000000007
aF0
aF22.6495
aF0
aF17.935400000000001
aF0
aF-616.81100000000004
aF0
aF0.393847
aF0
aF0.63524700000000001
aF0
aF1.01362
aF0
aF1.1973400000000001
aF0
aF3
atp748
a(F134.89600300788879
(lp749
I0
aI0
aF0.099812999999999999
aF0
aF0.319552
aF0
aF5352.6700000000001
aF0
aF0.10034999999999999
aF0
aF0.32127099999999997
aF0
aF87.710300000000004
aF0
aF22.647200000000002
aF0
aF18.015000000000001
aF0
aF-616.86099999999999
aF0
aF0.393847
aF0
aF0.63602000000000003
aF0
aF1.0144
aF0
aF1.19808
aF0
aF3
atp750
a(F135.90711784362793
(lp751
I0
aI0
aF0.10034800000000001
aF0
aF0.320245
aF0
aF5576.5900000000001
aF0
aF0.10091
aF0
aF0.32204100000000002
aF0
aF87.722399999999993
aF0
aF22.642199999999999
aF0
aF18.061599999999999
aF0
aF-616.952
aF0
aF0.393847
aF0
aF0.63677600000000001
aF0
aF1.0152300000000001
aF0
aF1.1989099999999999
aF0
aF3
atp752
a(F136.91472697257996
(lp753
I0
aI0
aF0.100102
aF0
aF0.32047599999999998
aF0
aF5656.5900000000001
aF0
aF0.100671
aF0
aF0.322299
aF0
aF87.722399999999993
aF0
aF22.6431
aF0
aF18.0427
aF0
aF-617.36699999999996
aF0
aF0.393847
aF0
aF0.63677499999999998
aF0
aF1.0153300000000001
aF0
aF1.1990400000000001
aF0
aF3
atp754
a(F137.92350792884827
(lp755
I0
aI0
aF0.100186
aF0
aF0.32037900000000002
aF0
aF5502.8900000000003
aF0
aF0.10074
aF0
aF0.32215199999999999
aF0
aF87.7029
aF0
aF22.6511
aF0
aF17.850300000000001
aF0
aF-616.33500000000004
aF0
aF0.39388600000000001
aF0
aF0.63535200000000003
aF0
aF1.01362
aF0
aF1.1973199999999999
aF0
aF3
atp756
a(F138.93133497238159
(lp757
I0
aI0
aF0.100369
aF0
aF0.32038899999999998
aF0
aF5406.3999999999996
aF0
aF0.100914
aF0
aF0.322131
aF0
aF87.704999999999998
aF0
aF22.651299999999999
aF0
aF17.831
aF0
aF-616.16800000000001
aF0
aF0.39388600000000001
aF0
aF0.63527500000000003
aF0
aF1.01369
aF0
aF1.1974800000000001
aF0
aF3
atp758
a(F139.94420695304871
(lp759
I0
aI0
aF0.099916599999999994
aF0
aF0.31929400000000002
aF0
aF5566.7700000000004
aF0
aF0.100476
aF0
aF0.32108100000000001
aF0
aF87.7256
aF0
aF22.6447
aF0
aF17.9818
aF0
aF-616.22500000000002
aF0
aF0.39388600000000001
aF0
aF0.63680700000000001
aF0
aF1.0152399999999999
aF0
aF1.1991000000000001
aF0
aF3
atp760
a(F140.95125579833984
(lp761
I0
aI0
aF0.100383
aF0
aF0.31964500000000001
aF0
aF5461.8100000000004
aF0
aF0.100934
aF0
aF0.32140099999999999
aF0
aF87.725800000000007
aF0
aF22.6447
aF0
aF17.956199999999999
aF0
aF-616.30700000000002
aF0
aF0.39388600000000001
aF0
aF0.63699799999999995
aF0
aF1.01532
aF0
aF1.19892
aF0
aF3
atp762
a(F141.9658420085907
(lp763
I0
aI0
aF0.100574
aF0
aF0.31944099999999997
aF0
aF5091.9700000000003
aF0
aF0.101088
aF0
aF0.32107599999999997
aF0
aF87.717100000000002
aF0
aF22.649899999999999
aF0
aF17.856400000000001
aF0
aF-617.12900000000002
aF0
aF0.39388600000000001
aF0
aF0.63614499999999996
aF0
aF1.0143500000000001
aF0
aF1.1980999999999999
aF0
aF3
atp764
a(F142.97948694229126
(lp765
I0
aI0
aF0.099962999999999996
aF0
aF0.31945600000000002
aF0
aF5280.6800000000003
aF0
aF0.100494
aF0
aF0.32115199999999999
aF0
aF87.7273
aF0
aF22.645800000000001
aF0
aF17.912700000000001
aF0
aF-615.83699999999999
aF0
aF0.39388600000000001
aF0
aF0.63692800000000005
aF0
aF1.01525
aF0
aF1.19882
aF0
aF3
atp766
a(F143.9855329990387
(lp767
I0
aI0
aF0.099690500000000001
aF0
aF0.31882700000000003
aF0
aF5312.6000000000004
aF0
aF0.10022300000000001
aF0
aF0.32052999999999998
aF0
aF87.706299999999999
aF0
aF22.653199999999998
aF0
aF17.731200000000001
aF0
aF-616.08900000000006
aF0
aF0.39388600000000001
aF0
aF0.63543000000000005
aF0
aF1.01373
aF0
aF1.19737
aF0
aF3
atp768
a(F144.9979407787323
(lp769
I0
aI0
aF0.099903500000000006
aF0
aF0.31972200000000001
aF0
aF5327.8000000000002
aF0
aF0.100439
aF0
aF0.321434
aF0
aF87.712900000000005
aF0
aF22.651599999999998
aF0
aF17.783799999999999
aF0
aF-616.43600000000004
aF0
aF0.39388600000000001
aF0
aF0.636189
aF0
aF1.0145500000000001
aF0
aF1.19835
aF0
aF3
atp770
a(F145.99718379974365
(lp771
I0
aI0
aF0.099708500000000005
aF0
aF0.31929200000000002
aF0
aF5347.8999999999996
aF0
aF0.100245
aF0
aF0.32100800000000002
aF0
aF87.725200000000001
aF0
aF22.646000000000001
aF0
aF17.863199999999999
aF0
aF-616.23099999999999
aF0
aF0.39388600000000001
aF0
aF0.63704000000000005
aF0
aF1.01536
aF0
aF1.19912
aF0
aF3
atp772
a(F147.00376796722412
(lp773
I0
aI0
aF0.099758799999999995
aF0
aF0.31985000000000002
aF0
aF5478.3000000000002
aF0
aF0.10030799999999999
aF0
aF0.32161200000000001
aF0
aF87.715199999999996
aF0
aF22.652000000000001
aF0
aF17.7577
aF0
aF-616.76199999999994
aF0
aF0.39388600000000001
aF0
aF0.63623700000000005
aF0
aF1.01447
aF0
aF1.1982600000000001
aF0
aF3
atp774
a(F148.00990080833435
(lp775
I0
aI0
aF0.099779599999999996
aF0
aF0.31932899999999997
aF0
aF5404.6199999999999
aF0
aF0.10032199999999999
aF0
aF0.32106400000000002
aF0
aF87.713099999999997
aF0
aF22.652899999999999
aF0
aF17.742699999999999
aF0
aF-617.04399999999998
aF0
aF0.39388600000000001
aF0
aF0.63634299999999999
aF0
aF1.0145299999999999
aF0
aF1.19815
aF0
aF3
atp776
a(F149.01667094230652
(lp777
I0
aI0
aF0.10011200000000001
aF0
aF0.32034400000000002
aF0
aF5394.7299999999996
aF0
aF0.10065499999999999
aF0
aF0.32208199999999998
aF0
aF87.706400000000002
aF0
aF22.655000000000001
aF0
aF17.656700000000001
aF0
aF-616.13099999999997
aF0
aF0.39388600000000001
aF0
aF0.63549
aF0
aF1.0136499999999999
aF0
aF1.1975499999999999
aF0
aF3
atp778
a(F150.02354288101196
(lp779
I0
aI0
aF0.099936399999999995
aF0
aF0.31991999999999998
aF0
aF5217.04
aF0
aF0.10046099999999999
aF0
aF0.32159799999999999
aF0
aF87.714699999999993
aF0
aF22.653199999999998
aF0
aF17.717600000000001
aF0
aF-615.81600000000003
aF0
aF0.39388600000000001
aF0
aF0.63629500000000005
aF0
aF1.0144599999999999
aF0
aF1.1980999999999999
aF0
aF3
atp780
a(F151.03337597846985
(lp781
I0
aI0
aF0.099410299999999993
aF0
aF0.31933
aF0
aF5467.71
aF0
aF0.099956799999999998
aF0
aF0.32108599999999998
aF0
aF87.710099999999997
aF0
aF22.6541
aF0
aF17.6966
aF0
aF-616.03200000000004
aF0
aF0.39388600000000001
aF0
aF0.63633600000000001
aF0
aF1.01451
aF0
aF1.19811
aF0
aF3
atp782
a(F152.03961586952209
(lp783
I0
aI0
aF0.099909300000000006
aF0
aF0.31945600000000002
aF0
aF5310.5699999999997
aF0
aF0.100443
aF0
aF0.321162
aF0
aF87.703100000000006
aF0
aF22.656500000000001
aF0
aF17.592300000000002
aF0
aF-616.31799999999998
aF0
aF0.39388600000000001
aF0
aF0.63548199999999999
aF0
aF1.0137799999999999
aF0
aF1.1971799999999999
aF0
aF3
atp784
a(F153.05015683174133
(lp785
I0
aI0
aF0.099829500000000002
aF0
aF0.31981700000000002
aF0
aF5417.8699999999999
aF0
aF0.100373
aF0
aF0.32155899999999998
aF0
aF87.721100000000007
aF0
aF22.6495
aF0
aF17.744599999999998
aF0
aF-616.75099999999998
aF0
aF0.39388600000000001
aF0
aF0.63707000000000003
aF0
aF1.01539
aF0
aF1.1988700000000001
aF0
aF3
atp786
a(F154.06687879562378
(lp787
I0
aI0
aF0.100008
aF0
aF0.31952700000000001
aF0
aF5408.9799999999996
aF0
aF0.100552
aF0
aF0.32126399999999999
aF0
aF87.722800000000007
aF0
aF22.649699999999999
aF0
aF17.718800000000002
aF0
aF-617.25
aF0
aF0.39382800000000001
aF0
aF0.63719800000000004
aF0
aF1.01536
aF0
aF1.1992700000000001
aF0
aF3
atp788
a(F155.07766890525818
(lp789
I0
aI0
aF0.099795800000000004
aF0
aF0.31985000000000002
aF0
aF5481.5200000000004
aF0
aF0.100346
aF0
aF0.32161299999999998
aF0
aF87.705299999999994
aF0
aF22.6572
aF0
aF17.535900000000002
aF0
aF-615.86900000000003
aF0
aF0.39382800000000001
aF0
aF0.63542399999999999
aF0
aF1.01363
aF0
aF1.1974
aF0
aF3
atp790
a(F156.08149695396423
(lp791
I0
aI0
aF0.099821999999999994
aF0
aF0.31936100000000001
aF0
aF5197.0699999999997
aF0
aF0.100343
aF0
aF0.32102900000000001
aF0
aF87.724900000000005
aF0
aF22.650099999999998
aF0
aF17.694600000000001
aF0
aF-615.29499999999996
aF0
aF0.39382800000000001
aF0
aF0.63708600000000004
aF0
aF1.0153399999999999
aF0
aF1.19916
aF0
aF3
atp792
a(F157.09633994102478
(lp793
I0
aI0
aF0.099876400000000004
aF0
aF0.31988699999999998
aF0
aF5048.6899999999996
aF0
aF0.100383
aF0
aF0.32151000000000002
aF0
aF87.712100000000007
aF0
aF22.656099999999999
aF0
aF17.598800000000001
aF0
aF-615.84699999999998
aF0
aF0.39382800000000001
aF0
aF0.63647900000000002
aF0
aF1.01431
aF0
aF1.19815
aF0
aF3
atp794
a(F158.1051869392395
(lp795
I0
aI0
aF0.099443400000000001
aF0
aF0.319189
aF0
aF5268.3500000000004
aF0
aF0.099970100000000006
aF0
aF0.32088
aF0
aF87.729100000000003
aF0
aF22.6511
aF0
aF17.6616
aF0
aF-616.03200000000004
aF0
aF0.39382800000000001
aF0
aF0.63729499999999994
aF0
aF1.0152600000000001
aF0
aF1.19903
aF0
aF3
atp796
a(F159.11526584625244
(lp797
I0
aI0
aF0.099660200000000004
aF0
aF0.32011400000000001
aF0
aF5501.96
aF0
aF0.100212
aF0
aF0.32188499999999998
aF0
aF87.728499999999997
aF0
aF22.651599999999998
aF0
aF17.6447
aF0
aF-616.59900000000005
aF0
aF0.39382800000000001
aF0
aF0.63726499999999997
aF0
aF1.0152300000000001
aF0
aF1.1991400000000001
aF0
aF3
atp798
a(F160.12884283065796
(lp799
I0
aI0
aF0.099755700000000003
aF0
aF0.31985000000000002
aF0
aF5169.1599999999999
aF0
aF0.100274
aF0
aF0.32151200000000002
aF0
aF87.729399999999998
aF0
aF22.651800000000001
aF0
aF17.622599999999998
aF0
aF-617.17999999999995
aF0
aF0.39382800000000001
aF0
aF0.63729000000000002
aF0
aF1.0153000000000001
aF0
aF1.19906
aF0
aF3
atp800
a(F161.13176894187927
(lp801
I0
aI0
aF0.099502699999999999
aF0
aF0.31990099999999999
aF0
aF5553.4799999999996
aF0
aF0.10005799999999999
aF0
aF0.32168799999999997
aF0
aF87.707400000000007
aF0
aF22.659199999999998
aF0
aF17.436900000000001
aF0
aF-615.88699999999994
aF0
aF0.39382800000000001
aF0
aF0.63582799999999995
aF0
aF1.0136700000000001
aF0
aF1.19737
aF0
aF3
atp802
a(F162.13360190391541
(lp803
I0
aI0
aF0.100152
aF0
aF0.319741
aF0
aF5565.0200000000004
aF0
aF0.100712
aF0
aF0.32152999999999998
aF0
aF87.715599999999995
aF0
aF22.657900000000001
aF0
aF17.493300000000001
aF0
aF-615.87599999999998
aF0
aF0.39382800000000001
aF0
aF0.63674299999999995
aF0
aF1.01447
aF0
aF1.1983699999999999
aF0
aF3
atp804
a(F163.13838696479797
(lp805
I0
aI0
aF0.099414299999999997
aF0
aF0.32031100000000001
aF0
aF5263.3699999999999
aF0
aF0.099940299999999996
aF0
aF0.32200499999999999
aF0
aF87.707099999999997
aF0
aF22.6601
aF0
aF17.387899999999998
aF0
aF-616.10299999999995
aF0
aF0.39382800000000001
aF0
aF0.63589700000000005
aF0
aF1.01369
aF0
aF1.19722
aF0
aF3
atp806
a(F164.14715600013733
(lp807
I0
aI0
aF0.099502900000000005
aF0
aF0.31994899999999998
aF0
aF5301.7600000000002
aF0
aF0.100033
aF0
aF0.321654
aF0
aF87.716099999999997
aF0
aF22.657900000000001
aF0
aF17.465699999999998
aF0
aF-615.96299999999997
aF0
aF0.39382800000000001
aF0
aF0.636849
aF0
aF1.01441
aF0
aF1.1981299999999999
aF0
aF3
atp808
a(F165.15707993507385
(lp809
I0
aI0
aF0.099328399999999997
aF0
aF0.32030999999999998
aF0
aF5441.8800000000001
aF0
aF0.0998719
aF0
aF0.32206299999999999
aF0
aF87.717200000000005
aF0
aF22.6587
aF0
aF17.462599999999998
aF0
aF-616.71500000000003
aF0
aF0.39382800000000001
aF0
aF0.63678999999999997
aF0
aF1.01444
aF0
aF1.1980200000000001
aF0
aF3
atp810
a(F166.16492486000061
(lp811
I0
aI0
aF0.099314200000000005
aF0
aF0.32027499999999998
aF0
aF5385.2200000000003
aF0
aF0.099851899999999993
aF0
aF0.32200899999999999
aF0
aF87.728200000000001
aF0
aF22.654299999999999
aF0
aF17.5167
aF0
aF-616.53499999999997
aF0
aF0.39382800000000001
aF0
aF0.63761599999999996
aF0
aF1.0152600000000001
aF0
aF1.19885
aF0
aF3
atp812
a(F167.17381978034973
(lp813
I0
aI0
aF0.099402000000000004
aF0
aF0.31985799999999998
aF0
aF5449.5
aF0
aF0.099946599999999997
aF0
aF0.32161099999999998
aF0
aF87.728200000000001
aF0
aF22.654599999999999
aF0
aF17.496400000000001
aF0
aF-616.45699999999999
aF0
aF0.39382800000000001
aF0
aF0.63763899999999996
aF0
aF1.01525
aF0
aF1.19892
aF0
aF3
atp814
a(F168.18946695327759
(lp815
I0
aI0
aF0.099409499999999998
aF0
aF0.320102
aF0
aF5551.3900000000003
aF0
aF0.099964399999999995
aF0
aF0.32188899999999998
aF0
aF87.724599999999995
aF0
aF22.655000000000001
aF0
aF17.4892
aF0
aF-616.66800000000001
aF0
aF0.39382800000000001
aF0
aF0.637679
aF0
aF1.01522
aF0
aF1.1991499999999999
aF0
aF3
atp816
a(F169.1983277797699
(lp817
I0
aI0
aF0.099414199999999994
aF0
aF0.31946200000000002
aF0
aF5203.7200000000003
aF0
aF0.099934200000000001
aF0
aF0.321133
aF0
aF87.714600000000004
aF0
aF22.6602
aF0
aF17.3858
aF0
aF-616.76800000000003
aF0
aF0.39382800000000001
aF0
aF0.63708699999999996
aF0
aF1.01447
aF0
aF1.19807
aF0
aF3
atp818
a(F170.20420289039612
(lp819
I0
aI0
aF0.099085400000000004
aF0
aF0.31993700000000003
aF0
aF5325.1800000000003
aF0
aF0.099615899999999993
aF0
aF0.32164999999999999
aF0
aF87.724900000000005
aF0
aF22.655100000000001
aF0
aF17.4682
aF0
aF-616.94500000000005
aF0
aF0.39382800000000001
aF0
aF0.637826
aF0
aF1.0153399999999999
aF0
aF1.19882
aF0
aF3
atp820
a(F171.21617984771729
(lp821
I0
aI0
aF0.099446599999999996
aF0
aF0.320129
aF0
aF5432.5
aF0
aF0.099989800000000004
aF0
aF0.321878
aF0
aF87.704599999999999
aF0
aF22.663
aF0
aF17.2743
aF0
aF-617.99800000000005
aF0
aF0.39382800000000001
aF0
aF0.63619599999999998
aF0
aF1.0136499999999999
aF0
aF1.1973
aF0
aF3
atp822
a(F172.21991991996765
(lp823
I0
aI0
aF0.099140500000000006
aF0
aF0.31945800000000002
aF0
aF5349.8699999999999
aF0
aF0.099673700000000004
aF0
aF0.32117600000000002
aF0
aF87.724000000000004
aF0
aF22.656099999999999
aF0
aF17.415500000000002
aF0
aF-615.79200000000003
aF0
aF0.39382800000000001
aF0
aF0.63748300000000002
aF0
aF1.0153000000000001
aF0
aF1.19896
aF0
aF3
atp824
a(F173.22887182235718
(lp825
I0
aI0
aF0.099274899999999999
aF0
aF0.32037300000000002
aF0
aF5281.5799999999999
aF0
aF0.099802000000000002
aF0
aF0.32207400000000003
aF0
aF87.7226
aF0
aF22.655899999999999
aF0
aF17.4131
aF0
aF-615.31500000000005
aF0
aF0.39382800000000001
aF0
aF0.63741000000000003
aF0
aF1.01539
aF0
aF1.19913
aF0
aF3
atp826
a(F174.23263382911682
(lp827
I0
aI0
aF0.099199899999999994
aF0
aF0.31986599999999998
aF0
aF5205.6800000000003
aF0
aF0.099719000000000002
aF0
aF0.32153999999999999
aF0
aF87.710499999999996
aF0
aF22.6616
aF0
aF17.3169
aF0
aF-615.822
aF0
aF0.39382800000000001
aF0
aF0.63650799999999996
aF0
aF1.01451
aF0
aF1.19834
aF0
aF3
atp828
a(F175.23737478256226
(lp829
I0
aI0
aF0.099380099999999999
aF0
aF0.32026300000000002
aF0
aF5443.5500000000002
aF0
aF0.099924100000000002
aF0
aF0.32201600000000002
aF0
aF87.702299999999994
aF0
aF22.664300000000001
aF0
aF17.1968
aF0
aF-616.11199999999997
aF0
aF0.39382800000000001
aF0
aF0.635494
aF0
aF1.01363
aF0
aF1.1974800000000001
aF0
aF3
atp830
a(F176.24713182449341
(lp831
I0
aI0
aF0.099199800000000005
aF0
aF0.32002399999999998
aF0
aF5508.46
aF0
aF0.099749299999999999
aF0
aF0.321797
aF0
aF87.713399999999993
aF0
aF22.662099999999999
aF0
aF17.2835
aF0
aF-616.53399999999999
aF0
aF0.39382800000000001
aF0
aF0.63639900000000005
aF0
aF1.01448
aF0
aF1.1981599999999999
aF0
aF3
atp832
a(F177.25974488258362
(lp833
I0
aI0
aF0.099152199999999996
aF0
aF0.32008599999999998
aF0
aF5521.1899999999996
aF0
aF0.099702700000000005
aF0
aF0.32186300000000001
aF0
aF87.723600000000005
aF0
aF22.658799999999999
aF0
aF17.345300000000002
aF0
aF-616.66300000000001
aF0
aF0.39382800000000001
aF0
aF0.63706799999999997
aF0
aF1.01518
aF0
aF1.19885
aF0
aF3
atp834
a(F178.26983189582825
(lp835
I0
aI0
aF0.099393400000000007
aF0
aF0.32023499999999999
aF0
aF5448.5500000000002
aF0
aF0.099937899999999996
aF0
aF0.32198900000000003
aF0
aF87.7119
aF0
aF22.6633
aF0
aF17.2455
aF0
aF-616.76199999999994
aF0
aF0.39382800000000001
aF0
aF0.63638300000000003
aF0
aF1.01447
aF0
aF1.1980900000000001
aF0
aF3
atp836
a(F179.2737557888031
(lp837
I0
aI0
aF0.099370899999999998
aF0
aF0.319963
aF0
aF5291.3199999999997
aF0
aF0.099899500000000002
aF0
aF0.32166499999999998
aF0
aF87.724800000000002
aF0
aF22.657900000000001
aF0
aF17.312100000000001
aF0
aF-616.82600000000002
aF0
aF0.39382800000000001
aF0
aF0.63720900000000003
aF0
aF1.0153000000000001
aF0
aF1.19885
aF0
aF3
atp838
a(F180.2806088924408
(lp839
I0
aI0
aF0.099722500000000006
aF0
aF0.32076900000000003
aF0
aF5469.25
aF0
aF0.100271
aF0
aF0.32253300000000001
aF0
aF87.722999999999999
aF0
aF22.658799999999999
aF0
aF17.3124
aF0
aF-617.60400000000004
aF0
aF0.39382800000000001
aF0
aF0.63741099999999995
aF0
aF1.01528
aF0
aF1.1989099999999999
aF0
aF3
atp840
a(F181.28345990180969
(lp841
I0
aI0
aF0.098687300000000006
aF0
aF0.32025100000000001
aF0
aF5492.1499999999996
aF0
aF0.099232299999999996
aF0
aF0.32201999999999997
aF0
aF87.702100000000002
aF0
aF22.665500000000002
aF0
aF17.113399999999999
aF0
aF-616.08100000000002
aF0
aF0.39382800000000001
aF0
aF0.63583999999999996
aF0
aF1.0136700000000001
aF0
aF1.19726
aF0
aF3
atp842
a(F182.28628897666931
(lp843
I0
aI0
aF0.099343799999999996
aF0
aF0.32052000000000003
aF0
aF5589.5900000000001
aF0
aF0.099902199999999997
aF0
aF0.32232100000000002
aF0
aF87.721800000000002
aF0
aF22.66
aF0
aF17.2652
aF0
aF-616.04300000000001
aF0
aF0.39382800000000001
aF0
aF0.63739999999999997
aF0
aF1.0152699999999999
aF0
aF1.1991499999999999
aF0
aF3
atp844
ass.